
kernel/kernel:     file format elf64-littleriscv


Disassembly of section .text:

0000000080000000 <_entry>:
    80000000:	00009117          	auipc	sp,0x9
    80000004:	17010113          	addi	sp,sp,368 # 80009170 <stack0>
    80000008:	6505                	lui	a0,0x1
    8000000a:	f14025f3          	csrr	a1,mhartid
    8000000e:	0585                	addi	a1,a1,1
    80000010:	02b50533          	mul	a0,a0,a1
    80000014:	912a                	add	sp,sp,a0
    80000016:	078000ef          	jal	ra,8000008e <start>

000000008000001a <spin>:
    8000001a:	a001                	j	8000001a <spin>

000000008000001c <timerinit>:
// which arrive at timervec in kernelvec.S,
// which turns them into software interrupts for
// devintr() in trap.c.
void
timerinit()
{
    8000001c:	1141                	addi	sp,sp,-16
    8000001e:	e422                	sd	s0,8(sp)
    80000020:	0800                	addi	s0,sp,16
// which hart (core) is this?
static inline uint64
r_mhartid()
{
  uint64 x;
  asm volatile("csrr %0, mhartid" : "=r" (x) );
    80000022:	f14027f3          	csrr	a5,mhartid
  // each CPU has a separate source of timer interrupts.
  int id = r_mhartid();
    80000026:	0007869b          	sext.w	a3,a5

  // ask the CLINT for a timer interrupt.
  int interval = 1000000; // cycles; about 1/10th second in qemu.
  *(uint64*)CLINT_MTIMECMP(id) = *(uint64*)CLINT_MTIME + interval;
    8000002a:	0037979b          	slliw	a5,a5,0x3
    8000002e:	02004737          	lui	a4,0x2004
    80000032:	97ba                	add	a5,a5,a4
    80000034:	0200c737          	lui	a4,0x200c
    80000038:	ff873583          	ld	a1,-8(a4) # 200bff8 <_entry-0x7dff4008>
    8000003c:	000f4637          	lui	a2,0xf4
    80000040:	24060613          	addi	a2,a2,576 # f4240 <_entry-0x7ff0bdc0>
    80000044:	95b2                	add	a1,a1,a2
    80000046:	e38c                	sd	a1,0(a5)

  // prepare information in scratch[] for timervec.
  // scratch[0..2] : space for timervec to save registers.
  // scratch[3] : address of CLINT MTIMECMP register.
  // scratch[4] : desired interval (in cycles) between timer interrupts.
  uint64 *scratch = &timer_scratch[id][0];
    80000048:	00269713          	slli	a4,a3,0x2
    8000004c:	9736                	add	a4,a4,a3
    8000004e:	00371693          	slli	a3,a4,0x3
    80000052:	00009717          	auipc	a4,0x9
    80000056:	fde70713          	addi	a4,a4,-34 # 80009030 <timer_scratch>
    8000005a:	9736                	add	a4,a4,a3
  scratch[3] = CLINT_MTIMECMP(id);
    8000005c:	ef1c                	sd	a5,24(a4)
  scratch[4] = interval;
    8000005e:	f310                	sd	a2,32(a4)
}

static inline void 
w_mscratch(uint64 x)
{
  asm volatile("csrw mscratch, %0" : : "r" (x));
    80000060:	34071073          	csrw	mscratch,a4
  asm volatile("csrw mtvec, %0" : : "r" (x));
    80000064:	00006797          	auipc	a5,0x6
    80000068:	adc78793          	addi	a5,a5,-1316 # 80005b40 <timervec>
    8000006c:	30579073          	csrw	mtvec,a5
  asm volatile("csrr %0, mstatus" : "=r" (x) );
    80000070:	300027f3          	csrr	a5,mstatus

  // set the machine-mode trap handler.
  w_mtvec((uint64)timervec);

  // enable machine-mode interrupts.
  w_mstatus(r_mstatus() | MSTATUS_MIE);
    80000074:	0087e793          	ori	a5,a5,8
  asm volatile("csrw mstatus, %0" : : "r" (x));
    80000078:	30079073          	csrw	mstatus,a5
  asm volatile("csrr %0, mie" : "=r" (x) );
    8000007c:	304027f3          	csrr	a5,mie

  // enable machine-mode timer interrupts.
  w_mie(r_mie() | MIE_MTIE);
    80000080:	0807e793          	ori	a5,a5,128
  asm volatile("csrw mie, %0" : : "r" (x));
    80000084:	30479073          	csrw	mie,a5
}
    80000088:	6422                	ld	s0,8(sp)
    8000008a:	0141                	addi	sp,sp,16
    8000008c:	8082                	ret

000000008000008e <start>:
{
    8000008e:	1141                	addi	sp,sp,-16
    80000090:	e406                	sd	ra,8(sp)
    80000092:	e022                	sd	s0,0(sp)
    80000094:	0800                	addi	s0,sp,16
  asm volatile("csrr %0, mstatus" : "=r" (x) );
    80000096:	300027f3          	csrr	a5,mstatus
  x &= ~MSTATUS_MPP_MASK;
    8000009a:	7779                	lui	a4,0xffffe
    8000009c:	7ff70713          	addi	a4,a4,2047 # ffffffffffffe7ff <end+0xffffffff7ffd87ff>
    800000a0:	8ff9                	and	a5,a5,a4
  x |= MSTATUS_MPP_S;
    800000a2:	6705                	lui	a4,0x1
    800000a4:	80070713          	addi	a4,a4,-2048 # 800 <_entry-0x7ffff800>
    800000a8:	8fd9                	or	a5,a5,a4
  asm volatile("csrw mstatus, %0" : : "r" (x));
    800000aa:	30079073          	csrw	mstatus,a5
  asm volatile("csrw mepc, %0" : : "r" (x));
    800000ae:	00001797          	auipc	a5,0x1
    800000b2:	e1878793          	addi	a5,a5,-488 # 80000ec6 <main>
    800000b6:	34179073          	csrw	mepc,a5
  asm volatile("csrw satp, %0" : : "r" (x));
    800000ba:	4781                	li	a5,0
    800000bc:	18079073          	csrw	satp,a5
  asm volatile("csrw medeleg, %0" : : "r" (x));
    800000c0:	67c1                	lui	a5,0x10
    800000c2:	17fd                	addi	a5,a5,-1
    800000c4:	30279073          	csrw	medeleg,a5
  asm volatile("csrw mideleg, %0" : : "r" (x));
    800000c8:	30379073          	csrw	mideleg,a5
  asm volatile("csrr %0, sie" : "=r" (x) );
    800000cc:	104027f3          	csrr	a5,sie
  w_sie(r_sie() | SIE_SEIE | SIE_STIE | SIE_SSIE);
    800000d0:	2227e793          	ori	a5,a5,546
  asm volatile("csrw sie, %0" : : "r" (x));
    800000d4:	10479073          	csrw	sie,a5
  timerinit();
    800000d8:	00000097          	auipc	ra,0x0
    800000dc:	f44080e7          	jalr	-188(ra) # 8000001c <timerinit>
  asm volatile("csrr %0, mhartid" : "=r" (x) );
    800000e0:	f14027f3          	csrr	a5,mhartid
  w_tp(id);
    800000e4:	2781                	sext.w	a5,a5
}

static inline void 
w_tp(uint64 x)
{
  asm volatile("mv tp, %0" : : "r" (x));
    800000e6:	823e                	mv	tp,a5
  asm volatile("mret");
    800000e8:	30200073          	mret
}
    800000ec:	60a2                	ld	ra,8(sp)
    800000ee:	6402                	ld	s0,0(sp)
    800000f0:	0141                	addi	sp,sp,16
    800000f2:	8082                	ret

00000000800000f4 <consolewrite>:
//
// user write()s to the console go here.
//
int
consolewrite(int user_src, uint64 src, int n)
{
    800000f4:	715d                	addi	sp,sp,-80
    800000f6:	e486                	sd	ra,72(sp)
    800000f8:	e0a2                	sd	s0,64(sp)
    800000fa:	fc26                	sd	s1,56(sp)
    800000fc:	f84a                	sd	s2,48(sp)
    800000fe:	f44e                	sd	s3,40(sp)
    80000100:	f052                	sd	s4,32(sp)
    80000102:	ec56                	sd	s5,24(sp)
    80000104:	0880                	addi	s0,sp,80
    80000106:	8a2a                	mv	s4,a0
    80000108:	84ae                	mv	s1,a1
    8000010a:	89b2                	mv	s3,a2
  int i;

  acquire(&cons.lock);
    8000010c:	00011517          	auipc	a0,0x11
    80000110:	06450513          	addi	a0,a0,100 # 80011170 <cons>
    80000114:	00001097          	auipc	ra,0x1
    80000118:	b04080e7          	jalr	-1276(ra) # 80000c18 <acquire>
  for(i = 0; i < n; i++){
    8000011c:	05305b63          	blez	s3,80000172 <consolewrite+0x7e>
    80000120:	4901                	li	s2,0
    char c;
    if(either_copyin(&c, user_src, src+i, 1) == -1)
    80000122:	5afd                	li	s5,-1
    80000124:	4685                	li	a3,1
    80000126:	8626                	mv	a2,s1
    80000128:	85d2                	mv	a1,s4
    8000012a:	fbf40513          	addi	a0,s0,-65
    8000012e:	00002097          	auipc	ra,0x2
    80000132:	30e080e7          	jalr	782(ra) # 8000243c <either_copyin>
    80000136:	01550c63          	beq	a0,s5,8000014e <consolewrite+0x5a>
      break;
    uartputc(c);
    8000013a:	fbf44503          	lbu	a0,-65(s0)
    8000013e:	00000097          	auipc	ra,0x0
    80000142:	7aa080e7          	jalr	1962(ra) # 800008e8 <uartputc>
  for(i = 0; i < n; i++){
    80000146:	2905                	addiw	s2,s2,1
    80000148:	0485                	addi	s1,s1,1
    8000014a:	fd299de3          	bne	s3,s2,80000124 <consolewrite+0x30>
  }
  release(&cons.lock);
    8000014e:	00011517          	auipc	a0,0x11
    80000152:	02250513          	addi	a0,a0,34 # 80011170 <cons>
    80000156:	00001097          	auipc	ra,0x1
    8000015a:	b76080e7          	jalr	-1162(ra) # 80000ccc <release>

  return i;
}
    8000015e:	854a                	mv	a0,s2
    80000160:	60a6                	ld	ra,72(sp)
    80000162:	6406                	ld	s0,64(sp)
    80000164:	74e2                	ld	s1,56(sp)
    80000166:	7942                	ld	s2,48(sp)
    80000168:	79a2                	ld	s3,40(sp)
    8000016a:	7a02                	ld	s4,32(sp)
    8000016c:	6ae2                	ld	s5,24(sp)
    8000016e:	6161                	addi	sp,sp,80
    80000170:	8082                	ret
  for(i = 0; i < n; i++){
    80000172:	4901                	li	s2,0
    80000174:	bfe9                	j	8000014e <consolewrite+0x5a>

0000000080000176 <consoleread>:
// user_dist indicates whether dst is a user
// or kernel address.
//
int
consoleread(int user_dst, uint64 dst, int n)
{
    80000176:	7119                	addi	sp,sp,-128
    80000178:	fc86                	sd	ra,120(sp)
    8000017a:	f8a2                	sd	s0,112(sp)
    8000017c:	f4a6                	sd	s1,104(sp)
    8000017e:	f0ca                	sd	s2,96(sp)
    80000180:	ecce                	sd	s3,88(sp)
    80000182:	e8d2                	sd	s4,80(sp)
    80000184:	e4d6                	sd	s5,72(sp)
    80000186:	e0da                	sd	s6,64(sp)
    80000188:	fc5e                	sd	s7,56(sp)
    8000018a:	f862                	sd	s8,48(sp)
    8000018c:	f466                	sd	s9,40(sp)
    8000018e:	f06a                	sd	s10,32(sp)
    80000190:	ec6e                	sd	s11,24(sp)
    80000192:	0100                	addi	s0,sp,128
    80000194:	8b2a                	mv	s6,a0
    80000196:	8aae                	mv	s5,a1
    80000198:	8a32                	mv	s4,a2
  uint target;
  int c;
  char cbuf;

  target = n;
    8000019a:	00060b9b          	sext.w	s7,a2
  acquire(&cons.lock);
    8000019e:	00011517          	auipc	a0,0x11
    800001a2:	fd250513          	addi	a0,a0,-46 # 80011170 <cons>
    800001a6:	00001097          	auipc	ra,0x1
    800001aa:	a72080e7          	jalr	-1422(ra) # 80000c18 <acquire>
  while(n > 0){
    // wait until interrupt handler has put some
    // input into cons.buffer.
    while(cons.r == cons.w){
    800001ae:	00011497          	auipc	s1,0x11
    800001b2:	fc248493          	addi	s1,s1,-62 # 80011170 <cons>
      if(myproc()->killed){
        release(&cons.lock);
        return -1;
      }
      sleep(&cons.r, &cons.lock);
    800001b6:	89a6                	mv	s3,s1
    800001b8:	00011917          	auipc	s2,0x11
    800001bc:	05090913          	addi	s2,s2,80 # 80011208 <cons+0x98>
    }

    c = cons.buf[cons.r++ % INPUT_BUF];

    if(c == C('D')){  // end-of-file
    800001c0:	4c91                	li	s9,4
      break;
    }

    // copy the input byte to the user-space buffer.
    cbuf = c;
    if(either_copyout(user_dst, dst, &cbuf, 1) == -1)
    800001c2:	5d7d                	li	s10,-1
      break;

    dst++;
    --n;

    if(c == '\n'){
    800001c4:	4da9                	li	s11,10
  while(n > 0){
    800001c6:	07405863          	blez	s4,80000236 <consoleread+0xc0>
    while(cons.r == cons.w){
    800001ca:	0984a783          	lw	a5,152(s1)
    800001ce:	09c4a703          	lw	a4,156(s1)
    800001d2:	02f71463          	bne	a4,a5,800001fa <consoleread+0x84>
      if(myproc()->killed){
    800001d6:	00001097          	auipc	ra,0x1
    800001da:	79e080e7          	jalr	1950(ra) # 80001974 <myproc>
    800001de:	591c                	lw	a5,48(a0)
    800001e0:	e7b5                	bnez	a5,8000024c <consoleread+0xd6>
      sleep(&cons.r, &cons.lock);
    800001e2:	85ce                	mv	a1,s3
    800001e4:	854a                	mv	a0,s2
    800001e6:	00002097          	auipc	ra,0x2
    800001ea:	f9e080e7          	jalr	-98(ra) # 80002184 <sleep>
    while(cons.r == cons.w){
    800001ee:	0984a783          	lw	a5,152(s1)
    800001f2:	09c4a703          	lw	a4,156(s1)
    800001f6:	fef700e3          	beq	a4,a5,800001d6 <consoleread+0x60>
    c = cons.buf[cons.r++ % INPUT_BUF];
    800001fa:	0017871b          	addiw	a4,a5,1
    800001fe:	08e4ac23          	sw	a4,152(s1)
    80000202:	07f7f713          	andi	a4,a5,127
    80000206:	9726                	add	a4,a4,s1
    80000208:	01874703          	lbu	a4,24(a4)
    8000020c:	00070c1b          	sext.w	s8,a4
    if(c == C('D')){  // end-of-file
    80000210:	079c0663          	beq	s8,s9,8000027c <consoleread+0x106>
    cbuf = c;
    80000214:	f8e407a3          	sb	a4,-113(s0)
    if(either_copyout(user_dst, dst, &cbuf, 1) == -1)
    80000218:	4685                	li	a3,1
    8000021a:	f8f40613          	addi	a2,s0,-113
    8000021e:	85d6                	mv	a1,s5
    80000220:	855a                	mv	a0,s6
    80000222:	00002097          	auipc	ra,0x2
    80000226:	1c4080e7          	jalr	452(ra) # 800023e6 <either_copyout>
    8000022a:	01a50663          	beq	a0,s10,80000236 <consoleread+0xc0>
    dst++;
    8000022e:	0a85                	addi	s5,s5,1
    --n;
    80000230:	3a7d                	addiw	s4,s4,-1
    if(c == '\n'){
    80000232:	f9bc1ae3          	bne	s8,s11,800001c6 <consoleread+0x50>
      // a whole line has arrived, return to
      // the user-level read().
      break;
    }
  }
  release(&cons.lock);
    80000236:	00011517          	auipc	a0,0x11
    8000023a:	f3a50513          	addi	a0,a0,-198 # 80011170 <cons>
    8000023e:	00001097          	auipc	ra,0x1
    80000242:	a8e080e7          	jalr	-1394(ra) # 80000ccc <release>

  return target - n;
    80000246:	414b853b          	subw	a0,s7,s4
    8000024a:	a811                	j	8000025e <consoleread+0xe8>
        release(&cons.lock);
    8000024c:	00011517          	auipc	a0,0x11
    80000250:	f2450513          	addi	a0,a0,-220 # 80011170 <cons>
    80000254:	00001097          	auipc	ra,0x1
    80000258:	a78080e7          	jalr	-1416(ra) # 80000ccc <release>
        return -1;
    8000025c:	557d                	li	a0,-1
}
    8000025e:	70e6                	ld	ra,120(sp)
    80000260:	7446                	ld	s0,112(sp)
    80000262:	74a6                	ld	s1,104(sp)
    80000264:	7906                	ld	s2,96(sp)
    80000266:	69e6                	ld	s3,88(sp)
    80000268:	6a46                	ld	s4,80(sp)
    8000026a:	6aa6                	ld	s5,72(sp)
    8000026c:	6b06                	ld	s6,64(sp)
    8000026e:	7be2                	ld	s7,56(sp)
    80000270:	7c42                	ld	s8,48(sp)
    80000272:	7ca2                	ld	s9,40(sp)
    80000274:	7d02                	ld	s10,32(sp)
    80000276:	6de2                	ld	s11,24(sp)
    80000278:	6109                	addi	sp,sp,128
    8000027a:	8082                	ret
      if(n < target){
    8000027c:	000a071b          	sext.w	a4,s4
    80000280:	fb777be3          	bgeu	a4,s7,80000236 <consoleread+0xc0>
        cons.r--;
    80000284:	00011717          	auipc	a4,0x11
    80000288:	f8f72223          	sw	a5,-124(a4) # 80011208 <cons+0x98>
    8000028c:	b76d                	j	80000236 <consoleread+0xc0>

000000008000028e <consputc>:
{
    8000028e:	1141                	addi	sp,sp,-16
    80000290:	e406                	sd	ra,8(sp)
    80000292:	e022                	sd	s0,0(sp)
    80000294:	0800                	addi	s0,sp,16
  if(c == BACKSPACE){
    80000296:	10000793          	li	a5,256
    8000029a:	00f50a63          	beq	a0,a5,800002ae <consputc+0x20>
    uartputc_sync(c);
    8000029e:	00000097          	auipc	ra,0x0
    800002a2:	564080e7          	jalr	1380(ra) # 80000802 <uartputc_sync>
}
    800002a6:	60a2                	ld	ra,8(sp)
    800002a8:	6402                	ld	s0,0(sp)
    800002aa:	0141                	addi	sp,sp,16
    800002ac:	8082                	ret
    uartputc_sync('\b'); uartputc_sync(' '); uartputc_sync('\b');
    800002ae:	4521                	li	a0,8
    800002b0:	00000097          	auipc	ra,0x0
    800002b4:	552080e7          	jalr	1362(ra) # 80000802 <uartputc_sync>
    800002b8:	02000513          	li	a0,32
    800002bc:	00000097          	auipc	ra,0x0
    800002c0:	546080e7          	jalr	1350(ra) # 80000802 <uartputc_sync>
    800002c4:	4521                	li	a0,8
    800002c6:	00000097          	auipc	ra,0x0
    800002ca:	53c080e7          	jalr	1340(ra) # 80000802 <uartputc_sync>
    800002ce:	bfe1                	j	800002a6 <consputc+0x18>

00000000800002d0 <consoleintr>:
// do erase/kill processing, append to cons.buf,
// wake up consoleread() if a whole line has arrived.
//
void
consoleintr(int c)
{
    800002d0:	1101                	addi	sp,sp,-32
    800002d2:	ec06                	sd	ra,24(sp)
    800002d4:	e822                	sd	s0,16(sp)
    800002d6:	e426                	sd	s1,8(sp)
    800002d8:	e04a                	sd	s2,0(sp)
    800002da:	1000                	addi	s0,sp,32
    800002dc:	84aa                	mv	s1,a0
  acquire(&cons.lock);
    800002de:	00011517          	auipc	a0,0x11
    800002e2:	e9250513          	addi	a0,a0,-366 # 80011170 <cons>
    800002e6:	00001097          	auipc	ra,0x1
    800002ea:	932080e7          	jalr	-1742(ra) # 80000c18 <acquire>

  switch(c){
    800002ee:	47d5                	li	a5,21
    800002f0:	0af48663          	beq	s1,a5,8000039c <consoleintr+0xcc>
    800002f4:	0297ca63          	blt	a5,s1,80000328 <consoleintr+0x58>
    800002f8:	47a1                	li	a5,8
    800002fa:	0ef48763          	beq	s1,a5,800003e8 <consoleintr+0x118>
    800002fe:	47c1                	li	a5,16
    80000300:	10f49a63          	bne	s1,a5,80000414 <consoleintr+0x144>
  case C('P'):  // Print process list.
    procdump();
    80000304:	00002097          	auipc	ra,0x2
    80000308:	18e080e7          	jalr	398(ra) # 80002492 <procdump>
      }
    }
    break;
  }
  
  release(&cons.lock);
    8000030c:	00011517          	auipc	a0,0x11
    80000310:	e6450513          	addi	a0,a0,-412 # 80011170 <cons>
    80000314:	00001097          	auipc	ra,0x1
    80000318:	9b8080e7          	jalr	-1608(ra) # 80000ccc <release>
}
    8000031c:	60e2                	ld	ra,24(sp)
    8000031e:	6442                	ld	s0,16(sp)
    80000320:	64a2                	ld	s1,8(sp)
    80000322:	6902                	ld	s2,0(sp)
    80000324:	6105                	addi	sp,sp,32
    80000326:	8082                	ret
  switch(c){
    80000328:	07f00793          	li	a5,127
    8000032c:	0af48e63          	beq	s1,a5,800003e8 <consoleintr+0x118>
    if(c != 0 && cons.e-cons.r < INPUT_BUF){
    80000330:	00011717          	auipc	a4,0x11
    80000334:	e4070713          	addi	a4,a4,-448 # 80011170 <cons>
    80000338:	0a072783          	lw	a5,160(a4)
    8000033c:	09872703          	lw	a4,152(a4)
    80000340:	9f99                	subw	a5,a5,a4
    80000342:	07f00713          	li	a4,127
    80000346:	fcf763e3          	bltu	a4,a5,8000030c <consoleintr+0x3c>
      c = (c == '\r') ? '\n' : c;
    8000034a:	47b5                	li	a5,13
    8000034c:	0cf48763          	beq	s1,a5,8000041a <consoleintr+0x14a>
      consputc(c);
    80000350:	8526                	mv	a0,s1
    80000352:	00000097          	auipc	ra,0x0
    80000356:	f3c080e7          	jalr	-196(ra) # 8000028e <consputc>
      cons.buf[cons.e++ % INPUT_BUF] = c;
    8000035a:	00011797          	auipc	a5,0x11
    8000035e:	e1678793          	addi	a5,a5,-490 # 80011170 <cons>
    80000362:	0a07a703          	lw	a4,160(a5)
    80000366:	0017069b          	addiw	a3,a4,1
    8000036a:	0006861b          	sext.w	a2,a3
    8000036e:	0ad7a023          	sw	a3,160(a5)
    80000372:	07f77713          	andi	a4,a4,127
    80000376:	97ba                	add	a5,a5,a4
    80000378:	00978c23          	sb	s1,24(a5)
      if(c == '\n' || c == C('D') || cons.e == cons.r+INPUT_BUF){
    8000037c:	47a9                	li	a5,10
    8000037e:	0cf48563          	beq	s1,a5,80000448 <consoleintr+0x178>
    80000382:	4791                	li	a5,4
    80000384:	0cf48263          	beq	s1,a5,80000448 <consoleintr+0x178>
    80000388:	00011797          	auipc	a5,0x11
    8000038c:	e807a783          	lw	a5,-384(a5) # 80011208 <cons+0x98>
    80000390:	0807879b          	addiw	a5,a5,128
    80000394:	f6f61ce3          	bne	a2,a5,8000030c <consoleintr+0x3c>
      cons.buf[cons.e++ % INPUT_BUF] = c;
    80000398:	863e                	mv	a2,a5
    8000039a:	a07d                	j	80000448 <consoleintr+0x178>
    while(cons.e != cons.w &&
    8000039c:	00011717          	auipc	a4,0x11
    800003a0:	dd470713          	addi	a4,a4,-556 # 80011170 <cons>
    800003a4:	0a072783          	lw	a5,160(a4)
    800003a8:	09c72703          	lw	a4,156(a4)
          cons.buf[(cons.e-1) % INPUT_BUF] != '\n'){
    800003ac:	00011497          	auipc	s1,0x11
    800003b0:	dc448493          	addi	s1,s1,-572 # 80011170 <cons>
    while(cons.e != cons.w &&
    800003b4:	4929                	li	s2,10
    800003b6:	f4f70be3          	beq	a4,a5,8000030c <consoleintr+0x3c>
          cons.buf[(cons.e-1) % INPUT_BUF] != '\n'){
    800003ba:	37fd                	addiw	a5,a5,-1
    800003bc:	07f7f713          	andi	a4,a5,127
    800003c0:	9726                	add	a4,a4,s1
    while(cons.e != cons.w &&
    800003c2:	01874703          	lbu	a4,24(a4)
    800003c6:	f52703e3          	beq	a4,s2,8000030c <consoleintr+0x3c>
      cons.e--;
    800003ca:	0af4a023          	sw	a5,160(s1)
      consputc(BACKSPACE);
    800003ce:	10000513          	li	a0,256
    800003d2:	00000097          	auipc	ra,0x0
    800003d6:	ebc080e7          	jalr	-324(ra) # 8000028e <consputc>
    while(cons.e != cons.w &&
    800003da:	0a04a783          	lw	a5,160(s1)
    800003de:	09c4a703          	lw	a4,156(s1)
    800003e2:	fcf71ce3          	bne	a4,a5,800003ba <consoleintr+0xea>
    800003e6:	b71d                	j	8000030c <consoleintr+0x3c>
    if(cons.e != cons.w){
    800003e8:	00011717          	auipc	a4,0x11
    800003ec:	d8870713          	addi	a4,a4,-632 # 80011170 <cons>
    800003f0:	0a072783          	lw	a5,160(a4)
    800003f4:	09c72703          	lw	a4,156(a4)
    800003f8:	f0f70ae3          	beq	a4,a5,8000030c <consoleintr+0x3c>
      cons.e--;
    800003fc:	37fd                	addiw	a5,a5,-1
    800003fe:	00011717          	auipc	a4,0x11
    80000402:	e0f72923          	sw	a5,-494(a4) # 80011210 <cons+0xa0>
      consputc(BACKSPACE);
    80000406:	10000513          	li	a0,256
    8000040a:	00000097          	auipc	ra,0x0
    8000040e:	e84080e7          	jalr	-380(ra) # 8000028e <consputc>
    80000412:	bded                	j	8000030c <consoleintr+0x3c>
    if(c != 0 && cons.e-cons.r < INPUT_BUF){
    80000414:	ee048ce3          	beqz	s1,8000030c <consoleintr+0x3c>
    80000418:	bf21                	j	80000330 <consoleintr+0x60>
      consputc(c);
    8000041a:	4529                	li	a0,10
    8000041c:	00000097          	auipc	ra,0x0
    80000420:	e72080e7          	jalr	-398(ra) # 8000028e <consputc>
      cons.buf[cons.e++ % INPUT_BUF] = c;
    80000424:	00011797          	auipc	a5,0x11
    80000428:	d4c78793          	addi	a5,a5,-692 # 80011170 <cons>
    8000042c:	0a07a703          	lw	a4,160(a5)
    80000430:	0017069b          	addiw	a3,a4,1
    80000434:	0006861b          	sext.w	a2,a3
    80000438:	0ad7a023          	sw	a3,160(a5)
    8000043c:	07f77713          	andi	a4,a4,127
    80000440:	97ba                	add	a5,a5,a4
    80000442:	4729                	li	a4,10
    80000444:	00e78c23          	sb	a4,24(a5)
        cons.w = cons.e;
    80000448:	00011797          	auipc	a5,0x11
    8000044c:	dcc7a223          	sw	a2,-572(a5) # 8001120c <cons+0x9c>
        wakeup(&cons.r);
    80000450:	00011517          	auipc	a0,0x11
    80000454:	db850513          	addi	a0,a0,-584 # 80011208 <cons+0x98>
    80000458:	00002097          	auipc	ra,0x2
    8000045c:	eb2080e7          	jalr	-334(ra) # 8000230a <wakeup>
    80000460:	b575                	j	8000030c <consoleintr+0x3c>

0000000080000462 <consoleinit>:

void
consoleinit(void)
{
    80000462:	1141                	addi	sp,sp,-16
    80000464:	e406                	sd	ra,8(sp)
    80000466:	e022                	sd	s0,0(sp)
    80000468:	0800                	addi	s0,sp,16
  initlock(&cons.lock, "cons");
    8000046a:	00008597          	auipc	a1,0x8
    8000046e:	ba658593          	addi	a1,a1,-1114 # 80008010 <etext+0x10>
    80000472:	00011517          	auipc	a0,0x11
    80000476:	cfe50513          	addi	a0,a0,-770 # 80011170 <cons>
    8000047a:	00000097          	auipc	ra,0x0
    8000047e:	70e080e7          	jalr	1806(ra) # 80000b88 <initlock>

  uartinit();
    80000482:	00000097          	auipc	ra,0x0
    80000486:	330080e7          	jalr	816(ra) # 800007b2 <uartinit>

  // connect read and write system calls
  // to consoleread and consolewrite.
  devsw[CONSOLE].read = consoleread;
    8000048a:	00021797          	auipc	a5,0x21
    8000048e:	e6678793          	addi	a5,a5,-410 # 800212f0 <devsw>
    80000492:	00000717          	auipc	a4,0x0
    80000496:	ce470713          	addi	a4,a4,-796 # 80000176 <consoleread>
    8000049a:	eb98                	sd	a4,16(a5)
  devsw[CONSOLE].write = consolewrite;
    8000049c:	00000717          	auipc	a4,0x0
    800004a0:	c5870713          	addi	a4,a4,-936 # 800000f4 <consolewrite>
    800004a4:	ef98                	sd	a4,24(a5)
}
    800004a6:	60a2                	ld	ra,8(sp)
    800004a8:	6402                	ld	s0,0(sp)
    800004aa:	0141                	addi	sp,sp,16
    800004ac:	8082                	ret

00000000800004ae <printint>:

static char digits[] = "0123456789abcdef";

static void
printint(int xx, int base, int sign)
{
    800004ae:	7179                	addi	sp,sp,-48
    800004b0:	f406                	sd	ra,40(sp)
    800004b2:	f022                	sd	s0,32(sp)
    800004b4:	ec26                	sd	s1,24(sp)
    800004b6:	e84a                	sd	s2,16(sp)
    800004b8:	1800                	addi	s0,sp,48
  char buf[16];
  int i;
  uint x;

  if(sign && (sign = xx < 0))
    800004ba:	c219                	beqz	a2,800004c0 <printint+0x12>
    800004bc:	08054663          	bltz	a0,80000548 <printint+0x9a>
    x = -xx;
  else
    x = xx;
    800004c0:	2501                	sext.w	a0,a0
    800004c2:	4881                	li	a7,0
    800004c4:	fd040693          	addi	a3,s0,-48

  i = 0;
    800004c8:	4701                	li	a4,0
  do {
    buf[i++] = digits[x % base];
    800004ca:	2581                	sext.w	a1,a1
    800004cc:	00008617          	auipc	a2,0x8
    800004d0:	b7460613          	addi	a2,a2,-1164 # 80008040 <digits>
    800004d4:	883a                	mv	a6,a4
    800004d6:	2705                	addiw	a4,a4,1
    800004d8:	02b577bb          	remuw	a5,a0,a1
    800004dc:	1782                	slli	a5,a5,0x20
    800004de:	9381                	srli	a5,a5,0x20
    800004e0:	97b2                	add	a5,a5,a2
    800004e2:	0007c783          	lbu	a5,0(a5)
    800004e6:	00f68023          	sb	a5,0(a3)
  } while((x /= base) != 0);
    800004ea:	0005079b          	sext.w	a5,a0
    800004ee:	02b5553b          	divuw	a0,a0,a1
    800004f2:	0685                	addi	a3,a3,1
    800004f4:	feb7f0e3          	bgeu	a5,a1,800004d4 <printint+0x26>

  if(sign)
    800004f8:	00088b63          	beqz	a7,8000050e <printint+0x60>
    buf[i++] = '-';
    800004fc:	fe040793          	addi	a5,s0,-32
    80000500:	973e                	add	a4,a4,a5
    80000502:	02d00793          	li	a5,45
    80000506:	fef70823          	sb	a5,-16(a4)
    8000050a:	0028071b          	addiw	a4,a6,2

  while(--i >= 0)
    8000050e:	02e05763          	blez	a4,8000053c <printint+0x8e>
    80000512:	fd040793          	addi	a5,s0,-48
    80000516:	00e784b3          	add	s1,a5,a4
    8000051a:	fff78913          	addi	s2,a5,-1
    8000051e:	993a                	add	s2,s2,a4
    80000520:	377d                	addiw	a4,a4,-1
    80000522:	1702                	slli	a4,a4,0x20
    80000524:	9301                	srli	a4,a4,0x20
    80000526:	40e90933          	sub	s2,s2,a4
    consputc(buf[i]);
    8000052a:	fff4c503          	lbu	a0,-1(s1)
    8000052e:	00000097          	auipc	ra,0x0
    80000532:	d60080e7          	jalr	-672(ra) # 8000028e <consputc>
  while(--i >= 0)
    80000536:	14fd                	addi	s1,s1,-1
    80000538:	ff2499e3          	bne	s1,s2,8000052a <printint+0x7c>
}
    8000053c:	70a2                	ld	ra,40(sp)
    8000053e:	7402                	ld	s0,32(sp)
    80000540:	64e2                	ld	s1,24(sp)
    80000542:	6942                	ld	s2,16(sp)
    80000544:	6145                	addi	sp,sp,48
    80000546:	8082                	ret
    x = -xx;
    80000548:	40a0053b          	negw	a0,a0
  if(sign && (sign = xx < 0))
    8000054c:	4885                	li	a7,1
    x = -xx;
    8000054e:	bf9d                	j	800004c4 <printint+0x16>

0000000080000550 <panic>:
    release(&pr.lock);
}

void
panic(char *s)
{
    80000550:	1101                	addi	sp,sp,-32
    80000552:	ec06                	sd	ra,24(sp)
    80000554:	e822                	sd	s0,16(sp)
    80000556:	e426                	sd	s1,8(sp)
    80000558:	1000                	addi	s0,sp,32
    8000055a:	84aa                	mv	s1,a0
  pr.locking = 0;
    8000055c:	00011797          	auipc	a5,0x11
    80000560:	cc07aa23          	sw	zero,-812(a5) # 80011230 <pr+0x18>
  printf("panic: ");
    80000564:	00008517          	auipc	a0,0x8
    80000568:	ab450513          	addi	a0,a0,-1356 # 80008018 <etext+0x18>
    8000056c:	00000097          	auipc	ra,0x0
    80000570:	02e080e7          	jalr	46(ra) # 8000059a <printf>
  printf(s);
    80000574:	8526                	mv	a0,s1
    80000576:	00000097          	auipc	ra,0x0
    8000057a:	024080e7          	jalr	36(ra) # 8000059a <printf>
  printf("\n");
    8000057e:	00008517          	auipc	a0,0x8
    80000582:	b4a50513          	addi	a0,a0,-1206 # 800080c8 <digits+0x88>
    80000586:	00000097          	auipc	ra,0x0
    8000058a:	014080e7          	jalr	20(ra) # 8000059a <printf>
  panicked = 1; // freeze uart output from other CPUs
    8000058e:	4785                	li	a5,1
    80000590:	00009717          	auipc	a4,0x9
    80000594:	a6f72823          	sw	a5,-1424(a4) # 80009000 <panicked>
  for(;;)
    80000598:	a001                	j	80000598 <panic+0x48>

000000008000059a <printf>:
{
    8000059a:	7131                	addi	sp,sp,-192
    8000059c:	fc86                	sd	ra,120(sp)
    8000059e:	f8a2                	sd	s0,112(sp)
    800005a0:	f4a6                	sd	s1,104(sp)
    800005a2:	f0ca                	sd	s2,96(sp)
    800005a4:	ecce                	sd	s3,88(sp)
    800005a6:	e8d2                	sd	s4,80(sp)
    800005a8:	e4d6                	sd	s5,72(sp)
    800005aa:	e0da                	sd	s6,64(sp)
    800005ac:	fc5e                	sd	s7,56(sp)
    800005ae:	f862                	sd	s8,48(sp)
    800005b0:	f466                	sd	s9,40(sp)
    800005b2:	f06a                	sd	s10,32(sp)
    800005b4:	ec6e                	sd	s11,24(sp)
    800005b6:	0100                	addi	s0,sp,128
    800005b8:	8a2a                	mv	s4,a0
    800005ba:	e40c                	sd	a1,8(s0)
    800005bc:	e810                	sd	a2,16(s0)
    800005be:	ec14                	sd	a3,24(s0)
    800005c0:	f018                	sd	a4,32(s0)
    800005c2:	f41c                	sd	a5,40(s0)
    800005c4:	03043823          	sd	a6,48(s0)
    800005c8:	03143c23          	sd	a7,56(s0)
  locking = pr.locking;
    800005cc:	00011d97          	auipc	s11,0x11
    800005d0:	c64dad83          	lw	s11,-924(s11) # 80011230 <pr+0x18>
  if(locking)
    800005d4:	020d9b63          	bnez	s11,8000060a <printf+0x70>
  if (fmt == 0)
    800005d8:	040a0263          	beqz	s4,8000061c <printf+0x82>
  va_start(ap, fmt);
    800005dc:	00840793          	addi	a5,s0,8
    800005e0:	f8f43423          	sd	a5,-120(s0)
  for(i = 0; (c = fmt[i] & 0xff) != 0; i++){
    800005e4:	000a4503          	lbu	a0,0(s4)
    800005e8:	16050263          	beqz	a0,8000074c <printf+0x1b2>
    800005ec:	4481                	li	s1,0
    if(c != '%'){
    800005ee:	02500a93          	li	s5,37
    switch(c){
    800005f2:	07000b13          	li	s6,112
  consputc('x');
    800005f6:	4d41                	li	s10,16
    consputc(digits[x >> (sizeof(uint64) * 8 - 4)]);
    800005f8:	00008b97          	auipc	s7,0x8
    800005fc:	a48b8b93          	addi	s7,s7,-1464 # 80008040 <digits>
    switch(c){
    80000600:	07300c93          	li	s9,115
    80000604:	06400c13          	li	s8,100
    80000608:	a82d                	j	80000642 <printf+0xa8>
    acquire(&pr.lock);
    8000060a:	00011517          	auipc	a0,0x11
    8000060e:	c0e50513          	addi	a0,a0,-1010 # 80011218 <pr>
    80000612:	00000097          	auipc	ra,0x0
    80000616:	606080e7          	jalr	1542(ra) # 80000c18 <acquire>
    8000061a:	bf7d                	j	800005d8 <printf+0x3e>
    panic("null fmt");
    8000061c:	00008517          	auipc	a0,0x8
    80000620:	a0c50513          	addi	a0,a0,-1524 # 80008028 <etext+0x28>
    80000624:	00000097          	auipc	ra,0x0
    80000628:	f2c080e7          	jalr	-212(ra) # 80000550 <panic>
      consputc(c);
    8000062c:	00000097          	auipc	ra,0x0
    80000630:	c62080e7          	jalr	-926(ra) # 8000028e <consputc>
  for(i = 0; (c = fmt[i] & 0xff) != 0; i++){
    80000634:	2485                	addiw	s1,s1,1
    80000636:	009a07b3          	add	a5,s4,s1
    8000063a:	0007c503          	lbu	a0,0(a5)
    8000063e:	10050763          	beqz	a0,8000074c <printf+0x1b2>
    if(c != '%'){
    80000642:	ff5515e3          	bne	a0,s5,8000062c <printf+0x92>
    c = fmt[++i] & 0xff;
    80000646:	2485                	addiw	s1,s1,1
    80000648:	009a07b3          	add	a5,s4,s1
    8000064c:	0007c783          	lbu	a5,0(a5)
    80000650:	0007891b          	sext.w	s2,a5
    if(c == 0)
    80000654:	cfe5                	beqz	a5,8000074c <printf+0x1b2>
    switch(c){
    80000656:	05678a63          	beq	a5,s6,800006aa <printf+0x110>
    8000065a:	02fb7663          	bgeu	s6,a5,80000686 <printf+0xec>
    8000065e:	09978963          	beq	a5,s9,800006f0 <printf+0x156>
    80000662:	07800713          	li	a4,120
    80000666:	0ce79863          	bne	a5,a4,80000736 <printf+0x19c>
      printint(va_arg(ap, int), 16, 1);
    8000066a:	f8843783          	ld	a5,-120(s0)
    8000066e:	00878713          	addi	a4,a5,8
    80000672:	f8e43423          	sd	a4,-120(s0)
    80000676:	4605                	li	a2,1
    80000678:	85ea                	mv	a1,s10
    8000067a:	4388                	lw	a0,0(a5)
    8000067c:	00000097          	auipc	ra,0x0
    80000680:	e32080e7          	jalr	-462(ra) # 800004ae <printint>
      break;
    80000684:	bf45                	j	80000634 <printf+0x9a>
    switch(c){
    80000686:	0b578263          	beq	a5,s5,8000072a <printf+0x190>
    8000068a:	0b879663          	bne	a5,s8,80000736 <printf+0x19c>
      printint(va_arg(ap, int), 10, 1);
    8000068e:	f8843783          	ld	a5,-120(s0)
    80000692:	00878713          	addi	a4,a5,8
    80000696:	f8e43423          	sd	a4,-120(s0)
    8000069a:	4605                	li	a2,1
    8000069c:	45a9                	li	a1,10
    8000069e:	4388                	lw	a0,0(a5)
    800006a0:	00000097          	auipc	ra,0x0
    800006a4:	e0e080e7          	jalr	-498(ra) # 800004ae <printint>
      break;
    800006a8:	b771                	j	80000634 <printf+0x9a>
      printptr(va_arg(ap, uint64));
    800006aa:	f8843783          	ld	a5,-120(s0)
    800006ae:	00878713          	addi	a4,a5,8
    800006b2:	f8e43423          	sd	a4,-120(s0)
    800006b6:	0007b983          	ld	s3,0(a5)
  consputc('0');
    800006ba:	03000513          	li	a0,48
    800006be:	00000097          	auipc	ra,0x0
    800006c2:	bd0080e7          	jalr	-1072(ra) # 8000028e <consputc>
  consputc('x');
    800006c6:	07800513          	li	a0,120
    800006ca:	00000097          	auipc	ra,0x0
    800006ce:	bc4080e7          	jalr	-1084(ra) # 8000028e <consputc>
    800006d2:	896a                	mv	s2,s10
    consputc(digits[x >> (sizeof(uint64) * 8 - 4)]);
    800006d4:	03c9d793          	srli	a5,s3,0x3c
    800006d8:	97de                	add	a5,a5,s7
    800006da:	0007c503          	lbu	a0,0(a5)
    800006de:	00000097          	auipc	ra,0x0
    800006e2:	bb0080e7          	jalr	-1104(ra) # 8000028e <consputc>
  for (i = 0; i < (sizeof(uint64) * 2); i++, x <<= 4)
    800006e6:	0992                	slli	s3,s3,0x4
    800006e8:	397d                	addiw	s2,s2,-1
    800006ea:	fe0915e3          	bnez	s2,800006d4 <printf+0x13a>
    800006ee:	b799                	j	80000634 <printf+0x9a>
      if((s = va_arg(ap, char*)) == 0)
    800006f0:	f8843783          	ld	a5,-120(s0)
    800006f4:	00878713          	addi	a4,a5,8
    800006f8:	f8e43423          	sd	a4,-120(s0)
    800006fc:	0007b903          	ld	s2,0(a5)
    80000700:	00090e63          	beqz	s2,8000071c <printf+0x182>
      for(; *s; s++)
    80000704:	00094503          	lbu	a0,0(s2)
    80000708:	d515                	beqz	a0,80000634 <printf+0x9a>
        consputc(*s);
    8000070a:	00000097          	auipc	ra,0x0
    8000070e:	b84080e7          	jalr	-1148(ra) # 8000028e <consputc>
      for(; *s; s++)
    80000712:	0905                	addi	s2,s2,1
    80000714:	00094503          	lbu	a0,0(s2)
    80000718:	f96d                	bnez	a0,8000070a <printf+0x170>
    8000071a:	bf29                	j	80000634 <printf+0x9a>
        s = "(null)";
    8000071c:	00008917          	auipc	s2,0x8
    80000720:	90490913          	addi	s2,s2,-1788 # 80008020 <etext+0x20>
      for(; *s; s++)
    80000724:	02800513          	li	a0,40
    80000728:	b7cd                	j	8000070a <printf+0x170>
      consputc('%');
    8000072a:	8556                	mv	a0,s5
    8000072c:	00000097          	auipc	ra,0x0
    80000730:	b62080e7          	jalr	-1182(ra) # 8000028e <consputc>
      break;
    80000734:	b701                	j	80000634 <printf+0x9a>
      consputc('%');
    80000736:	8556                	mv	a0,s5
    80000738:	00000097          	auipc	ra,0x0
    8000073c:	b56080e7          	jalr	-1194(ra) # 8000028e <consputc>
      consputc(c);
    80000740:	854a                	mv	a0,s2
    80000742:	00000097          	auipc	ra,0x0
    80000746:	b4c080e7          	jalr	-1204(ra) # 8000028e <consputc>
      break;
    8000074a:	b5ed                	j	80000634 <printf+0x9a>
  if(locking)
    8000074c:	020d9163          	bnez	s11,8000076e <printf+0x1d4>
}
    80000750:	70e6                	ld	ra,120(sp)
    80000752:	7446                	ld	s0,112(sp)
    80000754:	74a6                	ld	s1,104(sp)
    80000756:	7906                	ld	s2,96(sp)
    80000758:	69e6                	ld	s3,88(sp)
    8000075a:	6a46                	ld	s4,80(sp)
    8000075c:	6aa6                	ld	s5,72(sp)
    8000075e:	6b06                	ld	s6,64(sp)
    80000760:	7be2                	ld	s7,56(sp)
    80000762:	7c42                	ld	s8,48(sp)
    80000764:	7ca2                	ld	s9,40(sp)
    80000766:	7d02                	ld	s10,32(sp)
    80000768:	6de2                	ld	s11,24(sp)
    8000076a:	6129                	addi	sp,sp,192
    8000076c:	8082                	ret
    release(&pr.lock);
    8000076e:	00011517          	auipc	a0,0x11
    80000772:	aaa50513          	addi	a0,a0,-1366 # 80011218 <pr>
    80000776:	00000097          	auipc	ra,0x0
    8000077a:	556080e7          	jalr	1366(ra) # 80000ccc <release>
}
    8000077e:	bfc9                	j	80000750 <printf+0x1b6>

0000000080000780 <printfinit>:
    ;
}

void
printfinit(void)
{
    80000780:	1101                	addi	sp,sp,-32
    80000782:	ec06                	sd	ra,24(sp)
    80000784:	e822                	sd	s0,16(sp)
    80000786:	e426                	sd	s1,8(sp)
    80000788:	1000                	addi	s0,sp,32
  initlock(&pr.lock, "pr");
    8000078a:	00011497          	auipc	s1,0x11
    8000078e:	a8e48493          	addi	s1,s1,-1394 # 80011218 <pr>
    80000792:	00008597          	auipc	a1,0x8
    80000796:	8a658593          	addi	a1,a1,-1882 # 80008038 <etext+0x38>
    8000079a:	8526                	mv	a0,s1
    8000079c:	00000097          	auipc	ra,0x0
    800007a0:	3ec080e7          	jalr	1004(ra) # 80000b88 <initlock>
  pr.locking = 1;
    800007a4:	4785                	li	a5,1
    800007a6:	cc9c                	sw	a5,24(s1)
}
    800007a8:	60e2                	ld	ra,24(sp)
    800007aa:	6442                	ld	s0,16(sp)
    800007ac:	64a2                	ld	s1,8(sp)
    800007ae:	6105                	addi	sp,sp,32
    800007b0:	8082                	ret

00000000800007b2 <uartinit>:

void uartstart();

void
uartinit(void)
{
    800007b2:	1141                	addi	sp,sp,-16
    800007b4:	e406                	sd	ra,8(sp)
    800007b6:	e022                	sd	s0,0(sp)
    800007b8:	0800                	addi	s0,sp,16
  // disable interrupts.
  WriteReg(IER, 0x00);
    800007ba:	100007b7          	lui	a5,0x10000
    800007be:	000780a3          	sb	zero,1(a5) # 10000001 <_entry-0x6fffffff>

  // special mode to set baud rate.
  WriteReg(LCR, LCR_BAUD_LATCH);
    800007c2:	f8000713          	li	a4,-128
    800007c6:	00e781a3          	sb	a4,3(a5)

  // LSB for baud rate of 38.4K.
  WriteReg(0, 0x03);
    800007ca:	470d                	li	a4,3
    800007cc:	00e78023          	sb	a4,0(a5)

  // MSB for baud rate of 38.4K.
  WriteReg(1, 0x00);
    800007d0:	000780a3          	sb	zero,1(a5)

  // leave set-baud mode,
  // and set word length to 8 bits, no parity.
  WriteReg(LCR, LCR_EIGHT_BITS);
    800007d4:	00e781a3          	sb	a4,3(a5)

  // reset and enable FIFOs.
  WriteReg(FCR, FCR_FIFO_ENABLE | FCR_FIFO_CLEAR);
    800007d8:	469d                	li	a3,7
    800007da:	00d78123          	sb	a3,2(a5)

  // enable transmit and receive interrupts.
  WriteReg(IER, IER_TX_ENABLE | IER_RX_ENABLE);
    800007de:	00e780a3          	sb	a4,1(a5)

  initlock(&uart_tx_lock, "uart");
    800007e2:	00008597          	auipc	a1,0x8
    800007e6:	87658593          	addi	a1,a1,-1930 # 80008058 <digits+0x18>
    800007ea:	00011517          	auipc	a0,0x11
    800007ee:	a4e50513          	addi	a0,a0,-1458 # 80011238 <uart_tx_lock>
    800007f2:	00000097          	auipc	ra,0x0
    800007f6:	396080e7          	jalr	918(ra) # 80000b88 <initlock>
}
    800007fa:	60a2                	ld	ra,8(sp)
    800007fc:	6402                	ld	s0,0(sp)
    800007fe:	0141                	addi	sp,sp,16
    80000800:	8082                	ret

0000000080000802 <uartputc_sync>:
// use interrupts, for use by kernel printf() and
// to echo characters. it spins waiting for the uart's
// output register to be empty.
void
uartputc_sync(int c)
{
    80000802:	1101                	addi	sp,sp,-32
    80000804:	ec06                	sd	ra,24(sp)
    80000806:	e822                	sd	s0,16(sp)
    80000808:	e426                	sd	s1,8(sp)
    8000080a:	1000                	addi	s0,sp,32
    8000080c:	84aa                	mv	s1,a0
  push_off();
    8000080e:	00000097          	auipc	ra,0x0
    80000812:	3be080e7          	jalr	958(ra) # 80000bcc <push_off>

  if(panicked){
    80000816:	00008797          	auipc	a5,0x8
    8000081a:	7ea7a783          	lw	a5,2026(a5) # 80009000 <panicked>
    for(;;)
      ;
  }

  // wait for Transmit Holding Empty to be set in LSR.
  while((ReadReg(LSR) & LSR_TX_IDLE) == 0)
    8000081e:	10000737          	lui	a4,0x10000
  if(panicked){
    80000822:	c391                	beqz	a5,80000826 <uartputc_sync+0x24>
    for(;;)
    80000824:	a001                	j	80000824 <uartputc_sync+0x22>
  while((ReadReg(LSR) & LSR_TX_IDLE) == 0)
    80000826:	00574783          	lbu	a5,5(a4) # 10000005 <_entry-0x6ffffffb>
    8000082a:	0ff7f793          	andi	a5,a5,255
    8000082e:	0207f793          	andi	a5,a5,32
    80000832:	dbf5                	beqz	a5,80000826 <uartputc_sync+0x24>
    ;
  WriteReg(THR, c);
    80000834:	0ff4f793          	andi	a5,s1,255
    80000838:	10000737          	lui	a4,0x10000
    8000083c:	00f70023          	sb	a5,0(a4) # 10000000 <_entry-0x70000000>

  pop_off();
    80000840:	00000097          	auipc	ra,0x0
    80000844:	42c080e7          	jalr	1068(ra) # 80000c6c <pop_off>
}
    80000848:	60e2                	ld	ra,24(sp)
    8000084a:	6442                	ld	s0,16(sp)
    8000084c:	64a2                	ld	s1,8(sp)
    8000084e:	6105                	addi	sp,sp,32
    80000850:	8082                	ret

0000000080000852 <uartstart>:
// called from both the top- and bottom-half.
void
uartstart()
{
  while(1){
    if(uart_tx_w == uart_tx_r){
    80000852:	00008797          	auipc	a5,0x8
    80000856:	7b27a783          	lw	a5,1970(a5) # 80009004 <uart_tx_r>
    8000085a:	00008717          	auipc	a4,0x8
    8000085e:	7ae72703          	lw	a4,1966(a4) # 80009008 <uart_tx_w>
    80000862:	08f70263          	beq	a4,a5,800008e6 <uartstart+0x94>
{
    80000866:	7139                	addi	sp,sp,-64
    80000868:	fc06                	sd	ra,56(sp)
    8000086a:	f822                	sd	s0,48(sp)
    8000086c:	f426                	sd	s1,40(sp)
    8000086e:	f04a                	sd	s2,32(sp)
    80000870:	ec4e                	sd	s3,24(sp)
    80000872:	e852                	sd	s4,16(sp)
    80000874:	e456                	sd	s5,8(sp)
    80000876:	0080                	addi	s0,sp,64
      // transmit buffer is empty.
      return;
    }
    
    if((ReadReg(LSR) & LSR_TX_IDLE) == 0){
    80000878:	10000937          	lui	s2,0x10000
      // so we cannot give it another byte.
      // it will interrupt when it's ready for a new byte.
      return;
    }
    
    int c = uart_tx_buf[uart_tx_r];
    8000087c:	00011a17          	auipc	s4,0x11
    80000880:	9bca0a13          	addi	s4,s4,-1604 # 80011238 <uart_tx_lock>
    uart_tx_r = (uart_tx_r + 1) % UART_TX_BUF_SIZE;
    80000884:	00008497          	auipc	s1,0x8
    80000888:	78048493          	addi	s1,s1,1920 # 80009004 <uart_tx_r>
    if(uart_tx_w == uart_tx_r){
    8000088c:	00008997          	auipc	s3,0x8
    80000890:	77c98993          	addi	s3,s3,1916 # 80009008 <uart_tx_w>
    if((ReadReg(LSR) & LSR_TX_IDLE) == 0){
    80000894:	00594703          	lbu	a4,5(s2) # 10000005 <_entry-0x6ffffffb>
    80000898:	0ff77713          	andi	a4,a4,255
    8000089c:	02077713          	andi	a4,a4,32
    800008a0:	cb15                	beqz	a4,800008d4 <uartstart+0x82>
    int c = uart_tx_buf[uart_tx_r];
    800008a2:	00fa0733          	add	a4,s4,a5
    800008a6:	01874a83          	lbu	s5,24(a4)
    uart_tx_r = (uart_tx_r + 1) % UART_TX_BUF_SIZE;
    800008aa:	2785                	addiw	a5,a5,1
    800008ac:	41f7d71b          	sraiw	a4,a5,0x1f
    800008b0:	01b7571b          	srliw	a4,a4,0x1b
    800008b4:	9fb9                	addw	a5,a5,a4
    800008b6:	8bfd                	andi	a5,a5,31
    800008b8:	9f99                	subw	a5,a5,a4
    800008ba:	c09c                	sw	a5,0(s1)
    
    // maybe uartputc() is waiting for space in the buffer.
    wakeup(&uart_tx_r);
    800008bc:	8526                	mv	a0,s1
    800008be:	00002097          	auipc	ra,0x2
    800008c2:	a4c080e7          	jalr	-1460(ra) # 8000230a <wakeup>
    
    WriteReg(THR, c);
    800008c6:	01590023          	sb	s5,0(s2)
    if(uart_tx_w == uart_tx_r){
    800008ca:	409c                	lw	a5,0(s1)
    800008cc:	0009a703          	lw	a4,0(s3)
    800008d0:	fcf712e3          	bne	a4,a5,80000894 <uartstart+0x42>
  }
}
    800008d4:	70e2                	ld	ra,56(sp)
    800008d6:	7442                	ld	s0,48(sp)
    800008d8:	74a2                	ld	s1,40(sp)
    800008da:	7902                	ld	s2,32(sp)
    800008dc:	69e2                	ld	s3,24(sp)
    800008de:	6a42                	ld	s4,16(sp)
    800008e0:	6aa2                	ld	s5,8(sp)
    800008e2:	6121                	addi	sp,sp,64
    800008e4:	8082                	ret
    800008e6:	8082                	ret

00000000800008e8 <uartputc>:
{
    800008e8:	7179                	addi	sp,sp,-48
    800008ea:	f406                	sd	ra,40(sp)
    800008ec:	f022                	sd	s0,32(sp)
    800008ee:	ec26                	sd	s1,24(sp)
    800008f0:	e84a                	sd	s2,16(sp)
    800008f2:	e44e                	sd	s3,8(sp)
    800008f4:	e052                	sd	s4,0(sp)
    800008f6:	1800                	addi	s0,sp,48
    800008f8:	89aa                	mv	s3,a0
  acquire(&uart_tx_lock);
    800008fa:	00011517          	auipc	a0,0x11
    800008fe:	93e50513          	addi	a0,a0,-1730 # 80011238 <uart_tx_lock>
    80000902:	00000097          	auipc	ra,0x0
    80000906:	316080e7          	jalr	790(ra) # 80000c18 <acquire>
  if(panicked){
    8000090a:	00008797          	auipc	a5,0x8
    8000090e:	6f67a783          	lw	a5,1782(a5) # 80009000 <panicked>
    80000912:	c391                	beqz	a5,80000916 <uartputc+0x2e>
    for(;;)
    80000914:	a001                	j	80000914 <uartputc+0x2c>
    if(((uart_tx_w + 1) % UART_TX_BUF_SIZE) == uart_tx_r){
    80000916:	00008717          	auipc	a4,0x8
    8000091a:	6f272703          	lw	a4,1778(a4) # 80009008 <uart_tx_w>
    8000091e:	0017079b          	addiw	a5,a4,1
    80000922:	41f7d69b          	sraiw	a3,a5,0x1f
    80000926:	01b6d69b          	srliw	a3,a3,0x1b
    8000092a:	9fb5                	addw	a5,a5,a3
    8000092c:	8bfd                	andi	a5,a5,31
    8000092e:	9f95                	subw	a5,a5,a3
    80000930:	00008697          	auipc	a3,0x8
    80000934:	6d46a683          	lw	a3,1748(a3) # 80009004 <uart_tx_r>
    80000938:	04f69263          	bne	a3,a5,8000097c <uartputc+0x94>
      sleep(&uart_tx_r, &uart_tx_lock);
    8000093c:	00011a17          	auipc	s4,0x11
    80000940:	8fca0a13          	addi	s4,s4,-1796 # 80011238 <uart_tx_lock>
    80000944:	00008497          	auipc	s1,0x8
    80000948:	6c048493          	addi	s1,s1,1728 # 80009004 <uart_tx_r>
    if(((uart_tx_w + 1) % UART_TX_BUF_SIZE) == uart_tx_r){
    8000094c:	00008917          	auipc	s2,0x8
    80000950:	6bc90913          	addi	s2,s2,1724 # 80009008 <uart_tx_w>
      sleep(&uart_tx_r, &uart_tx_lock);
    80000954:	85d2                	mv	a1,s4
    80000956:	8526                	mv	a0,s1
    80000958:	00002097          	auipc	ra,0x2
    8000095c:	82c080e7          	jalr	-2004(ra) # 80002184 <sleep>
    if(((uart_tx_w + 1) % UART_TX_BUF_SIZE) == uart_tx_r){
    80000960:	00092703          	lw	a4,0(s2)
    80000964:	0017079b          	addiw	a5,a4,1
    80000968:	41f7d69b          	sraiw	a3,a5,0x1f
    8000096c:	01b6d69b          	srliw	a3,a3,0x1b
    80000970:	9fb5                	addw	a5,a5,a3
    80000972:	8bfd                	andi	a5,a5,31
    80000974:	9f95                	subw	a5,a5,a3
    80000976:	4094                	lw	a3,0(s1)
    80000978:	fcf68ee3          	beq	a3,a5,80000954 <uartputc+0x6c>
      uart_tx_buf[uart_tx_w] = c;
    8000097c:	00011497          	auipc	s1,0x11
    80000980:	8bc48493          	addi	s1,s1,-1860 # 80011238 <uart_tx_lock>
    80000984:	9726                	add	a4,a4,s1
    80000986:	01370c23          	sb	s3,24(a4)
      uart_tx_w = (uart_tx_w + 1) % UART_TX_BUF_SIZE;
    8000098a:	00008717          	auipc	a4,0x8
    8000098e:	66f72f23          	sw	a5,1662(a4) # 80009008 <uart_tx_w>
      uartstart();
    80000992:	00000097          	auipc	ra,0x0
    80000996:	ec0080e7          	jalr	-320(ra) # 80000852 <uartstart>
      release(&uart_tx_lock);
    8000099a:	8526                	mv	a0,s1
    8000099c:	00000097          	auipc	ra,0x0
    800009a0:	330080e7          	jalr	816(ra) # 80000ccc <release>
}
    800009a4:	70a2                	ld	ra,40(sp)
    800009a6:	7402                	ld	s0,32(sp)
    800009a8:	64e2                	ld	s1,24(sp)
    800009aa:	6942                	ld	s2,16(sp)
    800009ac:	69a2                	ld	s3,8(sp)
    800009ae:	6a02                	ld	s4,0(sp)
    800009b0:	6145                	addi	sp,sp,48
    800009b2:	8082                	ret

00000000800009b4 <uartgetc>:

// read one input character from the UART.
// return -1 if none is waiting.
int
uartgetc(void)
{
    800009b4:	1141                	addi	sp,sp,-16
    800009b6:	e422                	sd	s0,8(sp)
    800009b8:	0800                	addi	s0,sp,16
  if(ReadReg(LSR) & 0x01){
    800009ba:	100007b7          	lui	a5,0x10000
    800009be:	0057c783          	lbu	a5,5(a5) # 10000005 <_entry-0x6ffffffb>
    800009c2:	8b85                	andi	a5,a5,1
    800009c4:	cb91                	beqz	a5,800009d8 <uartgetc+0x24>
    // input data is ready.
    return ReadReg(RHR);
    800009c6:	100007b7          	lui	a5,0x10000
    800009ca:	0007c503          	lbu	a0,0(a5) # 10000000 <_entry-0x70000000>
    800009ce:	0ff57513          	andi	a0,a0,255
  } else {
    return -1;
  }
}
    800009d2:	6422                	ld	s0,8(sp)
    800009d4:	0141                	addi	sp,sp,16
    800009d6:	8082                	ret
    return -1;
    800009d8:	557d                	li	a0,-1
    800009da:	bfe5                	j	800009d2 <uartgetc+0x1e>

00000000800009dc <uartintr>:
// handle a uart interrupt, raised because input has
// arrived, or the uart is ready for more output, or
// both. called from trap.c.
void
uartintr(void)
{
    800009dc:	1101                	addi	sp,sp,-32
    800009de:	ec06                	sd	ra,24(sp)
    800009e0:	e822                	sd	s0,16(sp)
    800009e2:	e426                	sd	s1,8(sp)
    800009e4:	1000                	addi	s0,sp,32
  // read and process incoming characters.
  while(1){
    int c = uartgetc();
    if(c == -1)
    800009e6:	54fd                	li	s1,-1
    int c = uartgetc();
    800009e8:	00000097          	auipc	ra,0x0
    800009ec:	fcc080e7          	jalr	-52(ra) # 800009b4 <uartgetc>
    if(c == -1)
    800009f0:	00950763          	beq	a0,s1,800009fe <uartintr+0x22>
      break;
    consoleintr(c);
    800009f4:	00000097          	auipc	ra,0x0
    800009f8:	8dc080e7          	jalr	-1828(ra) # 800002d0 <consoleintr>
  while(1){
    800009fc:	b7f5                	j	800009e8 <uartintr+0xc>
  }

  // send buffered characters.
  acquire(&uart_tx_lock);
    800009fe:	00011497          	auipc	s1,0x11
    80000a02:	83a48493          	addi	s1,s1,-1990 # 80011238 <uart_tx_lock>
    80000a06:	8526                	mv	a0,s1
    80000a08:	00000097          	auipc	ra,0x0
    80000a0c:	210080e7          	jalr	528(ra) # 80000c18 <acquire>
  uartstart();
    80000a10:	00000097          	auipc	ra,0x0
    80000a14:	e42080e7          	jalr	-446(ra) # 80000852 <uartstart>
  release(&uart_tx_lock);
    80000a18:	8526                	mv	a0,s1
    80000a1a:	00000097          	auipc	ra,0x0
    80000a1e:	2b2080e7          	jalr	690(ra) # 80000ccc <release>
}
    80000a22:	60e2                	ld	ra,24(sp)
    80000a24:	6442                	ld	s0,16(sp)
    80000a26:	64a2                	ld	s1,8(sp)
    80000a28:	6105                	addi	sp,sp,32
    80000a2a:	8082                	ret

0000000080000a2c <kfree>:
// which normally should have been returned by a
// call to kalloc().  (The exception is when
// initializing the allocator; see kinit above.)
void
kfree(void *pa)
{
    80000a2c:	1101                	addi	sp,sp,-32
    80000a2e:	ec06                	sd	ra,24(sp)
    80000a30:	e822                	sd	s0,16(sp)
    80000a32:	e426                	sd	s1,8(sp)
    80000a34:	e04a                	sd	s2,0(sp)
    80000a36:	1000                	addi	s0,sp,32
  struct run *r;

  if(((uint64)pa % PGSIZE) != 0 || (char*)pa < end || (uint64)pa >= PHYSTOP)
    80000a38:	03451793          	slli	a5,a0,0x34
    80000a3c:	ebb9                	bnez	a5,80000a92 <kfree+0x66>
    80000a3e:	84aa                	mv	s1,a0
    80000a40:	00025797          	auipc	a5,0x25
    80000a44:	5c078793          	addi	a5,a5,1472 # 80026000 <end>
    80000a48:	04f56563          	bltu	a0,a5,80000a92 <kfree+0x66>
    80000a4c:	47c5                	li	a5,17
    80000a4e:	07ee                	slli	a5,a5,0x1b
    80000a50:	04f57163          	bgeu	a0,a5,80000a92 <kfree+0x66>
    panic("kfree");

  // Fill with junk to catch dangling refs.
  memset(pa, 1, PGSIZE);
    80000a54:	6605                	lui	a2,0x1
    80000a56:	4585                	li	a1,1
    80000a58:	00000097          	auipc	ra,0x0
    80000a5c:	2bc080e7          	jalr	700(ra) # 80000d14 <memset>

  r = (struct run*)pa;

  acquire(&kmem.lock);
    80000a60:	00011917          	auipc	s2,0x11
    80000a64:	81090913          	addi	s2,s2,-2032 # 80011270 <kmem>
    80000a68:	854a                	mv	a0,s2
    80000a6a:	00000097          	auipc	ra,0x0
    80000a6e:	1ae080e7          	jalr	430(ra) # 80000c18 <acquire>
  r->next = kmem.freelist;
    80000a72:	01893783          	ld	a5,24(s2)
    80000a76:	e09c                	sd	a5,0(s1)
  kmem.freelist = r;
    80000a78:	00993c23          	sd	s1,24(s2)
  release(&kmem.lock);
    80000a7c:	854a                	mv	a0,s2
    80000a7e:	00000097          	auipc	ra,0x0
    80000a82:	24e080e7          	jalr	590(ra) # 80000ccc <release>
}
    80000a86:	60e2                	ld	ra,24(sp)
    80000a88:	6442                	ld	s0,16(sp)
    80000a8a:	64a2                	ld	s1,8(sp)
    80000a8c:	6902                	ld	s2,0(sp)
    80000a8e:	6105                	addi	sp,sp,32
    80000a90:	8082                	ret
    panic("kfree");
    80000a92:	00007517          	auipc	a0,0x7
    80000a96:	5ce50513          	addi	a0,a0,1486 # 80008060 <digits+0x20>
    80000a9a:	00000097          	auipc	ra,0x0
    80000a9e:	ab6080e7          	jalr	-1354(ra) # 80000550 <panic>

0000000080000aa2 <freerange>:
{
    80000aa2:	7179                	addi	sp,sp,-48
    80000aa4:	f406                	sd	ra,40(sp)
    80000aa6:	f022                	sd	s0,32(sp)
    80000aa8:	ec26                	sd	s1,24(sp)
    80000aaa:	e84a                	sd	s2,16(sp)
    80000aac:	e44e                	sd	s3,8(sp)
    80000aae:	e052                	sd	s4,0(sp)
    80000ab0:	1800                	addi	s0,sp,48
  p = (char*)PGROUNDUP((uint64)pa_start);
    80000ab2:	6785                	lui	a5,0x1
    80000ab4:	fff78493          	addi	s1,a5,-1 # fff <_entry-0x7ffff001>
    80000ab8:	94aa                	add	s1,s1,a0
    80000aba:	757d                	lui	a0,0xfffff
    80000abc:	8ce9                	and	s1,s1,a0
  for(; p + PGSIZE <= (char*)pa_end; p += PGSIZE)
    80000abe:	94be                	add	s1,s1,a5
    80000ac0:	0095ee63          	bltu	a1,s1,80000adc <freerange+0x3a>
    80000ac4:	892e                	mv	s2,a1
    kfree(p);
    80000ac6:	7a7d                	lui	s4,0xfffff
  for(; p + PGSIZE <= (char*)pa_end; p += PGSIZE)
    80000ac8:	6985                	lui	s3,0x1
    kfree(p);
    80000aca:	01448533          	add	a0,s1,s4
    80000ace:	00000097          	auipc	ra,0x0
    80000ad2:	f5e080e7          	jalr	-162(ra) # 80000a2c <kfree>
  for(; p + PGSIZE <= (char*)pa_end; p += PGSIZE)
    80000ad6:	94ce                	add	s1,s1,s3
    80000ad8:	fe9979e3          	bgeu	s2,s1,80000aca <freerange+0x28>
}
    80000adc:	70a2                	ld	ra,40(sp)
    80000ade:	7402                	ld	s0,32(sp)
    80000ae0:	64e2                	ld	s1,24(sp)
    80000ae2:	6942                	ld	s2,16(sp)
    80000ae4:	69a2                	ld	s3,8(sp)
    80000ae6:	6a02                	ld	s4,0(sp)
    80000ae8:	6145                	addi	sp,sp,48
    80000aea:	8082                	ret

0000000080000aec <kinit>:
{
    80000aec:	1141                	addi	sp,sp,-16
    80000aee:	e406                	sd	ra,8(sp)
    80000af0:	e022                	sd	s0,0(sp)
    80000af2:	0800                	addi	s0,sp,16
  initlock(&kmem.lock, "kmem");
    80000af4:	00007597          	auipc	a1,0x7
    80000af8:	57458593          	addi	a1,a1,1396 # 80008068 <digits+0x28>
    80000afc:	00010517          	auipc	a0,0x10
    80000b00:	77450513          	addi	a0,a0,1908 # 80011270 <kmem>
    80000b04:	00000097          	auipc	ra,0x0
    80000b08:	084080e7          	jalr	132(ra) # 80000b88 <initlock>
  freerange(end, (void*)PHYSTOP);
    80000b0c:	45c5                	li	a1,17
    80000b0e:	05ee                	slli	a1,a1,0x1b
    80000b10:	00025517          	auipc	a0,0x25
    80000b14:	4f050513          	addi	a0,a0,1264 # 80026000 <end>
    80000b18:	00000097          	auipc	ra,0x0
    80000b1c:	f8a080e7          	jalr	-118(ra) # 80000aa2 <freerange>
}
    80000b20:	60a2                	ld	ra,8(sp)
    80000b22:	6402                	ld	s0,0(sp)
    80000b24:	0141                	addi	sp,sp,16
    80000b26:	8082                	ret

0000000080000b28 <kalloc>:
// Allocate one 4096-byte page of physical memory.
// Returns a pointer that the kernel can use.
// Returns 0 if the memory cannot be allocated.
void *
kalloc(void)
{
    80000b28:	1101                	addi	sp,sp,-32
    80000b2a:	ec06                	sd	ra,24(sp)
    80000b2c:	e822                	sd	s0,16(sp)
    80000b2e:	e426                	sd	s1,8(sp)
    80000b30:	1000                	addi	s0,sp,32
  struct run *r;

  acquire(&kmem.lock);
    80000b32:	00010497          	auipc	s1,0x10
    80000b36:	73e48493          	addi	s1,s1,1854 # 80011270 <kmem>
    80000b3a:	8526                	mv	a0,s1
    80000b3c:	00000097          	auipc	ra,0x0
    80000b40:	0dc080e7          	jalr	220(ra) # 80000c18 <acquire>
  r = kmem.freelist;
    80000b44:	6c84                	ld	s1,24(s1)
  if(r)
    80000b46:	c885                	beqz	s1,80000b76 <kalloc+0x4e>
    kmem.freelist = r->next;
    80000b48:	609c                	ld	a5,0(s1)
    80000b4a:	00010517          	auipc	a0,0x10
    80000b4e:	72650513          	addi	a0,a0,1830 # 80011270 <kmem>
    80000b52:	ed1c                	sd	a5,24(a0)
  release(&kmem.lock);
    80000b54:	00000097          	auipc	ra,0x0
    80000b58:	178080e7          	jalr	376(ra) # 80000ccc <release>

  if(r)
    memset((char*)r, 5, PGSIZE); // fill with junk
    80000b5c:	6605                	lui	a2,0x1
    80000b5e:	4595                	li	a1,5
    80000b60:	8526                	mv	a0,s1
    80000b62:	00000097          	auipc	ra,0x0
    80000b66:	1b2080e7          	jalr	434(ra) # 80000d14 <memset>
  return (void*)r;
}
    80000b6a:	8526                	mv	a0,s1
    80000b6c:	60e2                	ld	ra,24(sp)
    80000b6e:	6442                	ld	s0,16(sp)
    80000b70:	64a2                	ld	s1,8(sp)
    80000b72:	6105                	addi	sp,sp,32
    80000b74:	8082                	ret
  release(&kmem.lock);
    80000b76:	00010517          	auipc	a0,0x10
    80000b7a:	6fa50513          	addi	a0,a0,1786 # 80011270 <kmem>
    80000b7e:	00000097          	auipc	ra,0x0
    80000b82:	14e080e7          	jalr	334(ra) # 80000ccc <release>
  if(r)
    80000b86:	b7d5                	j	80000b6a <kalloc+0x42>

0000000080000b88 <initlock>:
#include "proc.h"
#include "defs.h"

void
initlock(struct spinlock *lk, char *name)
{
    80000b88:	1141                	addi	sp,sp,-16
    80000b8a:	e422                	sd	s0,8(sp)
    80000b8c:	0800                	addi	s0,sp,16
  lk->name = name;
    80000b8e:	e50c                	sd	a1,8(a0)
  lk->locked = 0;
    80000b90:	00052023          	sw	zero,0(a0)
  lk->cpu = 0;
    80000b94:	00053823          	sd	zero,16(a0)
}
    80000b98:	6422                	ld	s0,8(sp)
    80000b9a:	0141                	addi	sp,sp,16
    80000b9c:	8082                	ret

0000000080000b9e <holding>:
// Interrupts must be off.
int
holding(struct spinlock *lk)
{
  int r;
  r = (lk->locked && lk->cpu == mycpu());
    80000b9e:	411c                	lw	a5,0(a0)
    80000ba0:	e399                	bnez	a5,80000ba6 <holding+0x8>
    80000ba2:	4501                	li	a0,0
  return r;
}
    80000ba4:	8082                	ret
{
    80000ba6:	1101                	addi	sp,sp,-32
    80000ba8:	ec06                	sd	ra,24(sp)
    80000baa:	e822                	sd	s0,16(sp)
    80000bac:	e426                	sd	s1,8(sp)
    80000bae:	1000                	addi	s0,sp,32
  r = (lk->locked && lk->cpu == mycpu());
    80000bb0:	6904                	ld	s1,16(a0)
    80000bb2:	00001097          	auipc	ra,0x1
    80000bb6:	da6080e7          	jalr	-602(ra) # 80001958 <mycpu>
    80000bba:	40a48533          	sub	a0,s1,a0
    80000bbe:	00153513          	seqz	a0,a0
}
    80000bc2:	60e2                	ld	ra,24(sp)
    80000bc4:	6442                	ld	s0,16(sp)
    80000bc6:	64a2                	ld	s1,8(sp)
    80000bc8:	6105                	addi	sp,sp,32
    80000bca:	8082                	ret

0000000080000bcc <push_off>:
// it takes two pop_off()s to undo two push_off()s.  Also, if interrupts
// are initially off, then push_off, pop_off leaves them off.

void
push_off(void)
{
    80000bcc:	1101                	addi	sp,sp,-32
    80000bce:	ec06                	sd	ra,24(sp)
    80000bd0:	e822                	sd	s0,16(sp)
    80000bd2:	e426                	sd	s1,8(sp)
    80000bd4:	1000                	addi	s0,sp,32
  asm volatile("csrr %0, sstatus" : "=r" (x) );
    80000bd6:	100024f3          	csrr	s1,sstatus
    80000bda:	100027f3          	csrr	a5,sstatus
  w_sstatus(r_sstatus() & ~SSTATUS_SIE);
    80000bde:	9bf5                	andi	a5,a5,-3
  asm volatile("csrw sstatus, %0" : : "r" (x));
    80000be0:	10079073          	csrw	sstatus,a5
  int old = intr_get();

  intr_off();
  if(mycpu()->noff == 0)
    80000be4:	00001097          	auipc	ra,0x1
    80000be8:	d74080e7          	jalr	-652(ra) # 80001958 <mycpu>
    80000bec:	5d3c                	lw	a5,120(a0)
    80000bee:	cf89                	beqz	a5,80000c08 <push_off+0x3c>
    mycpu()->intena = old;
  mycpu()->noff += 1;
    80000bf0:	00001097          	auipc	ra,0x1
    80000bf4:	d68080e7          	jalr	-664(ra) # 80001958 <mycpu>
    80000bf8:	5d3c                	lw	a5,120(a0)
    80000bfa:	2785                	addiw	a5,a5,1
    80000bfc:	dd3c                	sw	a5,120(a0)
}
    80000bfe:	60e2                	ld	ra,24(sp)
    80000c00:	6442                	ld	s0,16(sp)
    80000c02:	64a2                	ld	s1,8(sp)
    80000c04:	6105                	addi	sp,sp,32
    80000c06:	8082                	ret
    mycpu()->intena = old;
    80000c08:	00001097          	auipc	ra,0x1
    80000c0c:	d50080e7          	jalr	-688(ra) # 80001958 <mycpu>
  return (x & SSTATUS_SIE) != 0;
    80000c10:	8085                	srli	s1,s1,0x1
    80000c12:	8885                	andi	s1,s1,1
    80000c14:	dd64                	sw	s1,124(a0)
    80000c16:	bfe9                	j	80000bf0 <push_off+0x24>

0000000080000c18 <acquire>:
{
    80000c18:	1101                	addi	sp,sp,-32
    80000c1a:	ec06                	sd	ra,24(sp)
    80000c1c:	e822                	sd	s0,16(sp)
    80000c1e:	e426                	sd	s1,8(sp)
    80000c20:	1000                	addi	s0,sp,32
    80000c22:	84aa                	mv	s1,a0
  push_off(); // disable interrupts to avoid deadlock.
    80000c24:	00000097          	auipc	ra,0x0
    80000c28:	fa8080e7          	jalr	-88(ra) # 80000bcc <push_off>
  if(holding(lk))
    80000c2c:	8526                	mv	a0,s1
    80000c2e:	00000097          	auipc	ra,0x0
    80000c32:	f70080e7          	jalr	-144(ra) # 80000b9e <holding>
  while(__sync_lock_test_and_set(&lk->locked, 1) != 0)
    80000c36:	4705                	li	a4,1
  if(holding(lk))
    80000c38:	e115                	bnez	a0,80000c5c <acquire+0x44>
  while(__sync_lock_test_and_set(&lk->locked, 1) != 0)
    80000c3a:	87ba                	mv	a5,a4
    80000c3c:	0cf4a7af          	amoswap.w.aq	a5,a5,(s1)
    80000c40:	2781                	sext.w	a5,a5
    80000c42:	ffe5                	bnez	a5,80000c3a <acquire+0x22>
  __sync_synchronize();
    80000c44:	0ff0000f          	fence
  lk->cpu = mycpu();
    80000c48:	00001097          	auipc	ra,0x1
    80000c4c:	d10080e7          	jalr	-752(ra) # 80001958 <mycpu>
    80000c50:	e888                	sd	a0,16(s1)
}
    80000c52:	60e2                	ld	ra,24(sp)
    80000c54:	6442                	ld	s0,16(sp)
    80000c56:	64a2                	ld	s1,8(sp)
    80000c58:	6105                	addi	sp,sp,32
    80000c5a:	8082                	ret
    panic("acquire");
    80000c5c:	00007517          	auipc	a0,0x7
    80000c60:	41450513          	addi	a0,a0,1044 # 80008070 <digits+0x30>
    80000c64:	00000097          	auipc	ra,0x0
    80000c68:	8ec080e7          	jalr	-1812(ra) # 80000550 <panic>

0000000080000c6c <pop_off>:

void
pop_off(void)
{
    80000c6c:	1141                	addi	sp,sp,-16
    80000c6e:	e406                	sd	ra,8(sp)
    80000c70:	e022                	sd	s0,0(sp)
    80000c72:	0800                	addi	s0,sp,16
  struct cpu *c = mycpu();
    80000c74:	00001097          	auipc	ra,0x1
    80000c78:	ce4080e7          	jalr	-796(ra) # 80001958 <mycpu>
  asm volatile("csrr %0, sstatus" : "=r" (x) );
    80000c7c:	100027f3          	csrr	a5,sstatus
  return (x & SSTATUS_SIE) != 0;
    80000c80:	8b89                	andi	a5,a5,2
  if(intr_get())
    80000c82:	e78d                	bnez	a5,80000cac <pop_off+0x40>
    panic("pop_off - interruptible");
  if(c->noff < 1)
    80000c84:	5d3c                	lw	a5,120(a0)
    80000c86:	02f05b63          	blez	a5,80000cbc <pop_off+0x50>
    panic("pop_off");
  c->noff -= 1;
    80000c8a:	37fd                	addiw	a5,a5,-1
    80000c8c:	0007871b          	sext.w	a4,a5
    80000c90:	dd3c                	sw	a5,120(a0)
  if(c->noff == 0 && c->intena)
    80000c92:	eb09                	bnez	a4,80000ca4 <pop_off+0x38>
    80000c94:	5d7c                	lw	a5,124(a0)
    80000c96:	c799                	beqz	a5,80000ca4 <pop_off+0x38>
  asm volatile("csrr %0, sstatus" : "=r" (x) );
    80000c98:	100027f3          	csrr	a5,sstatus
  w_sstatus(r_sstatus() | SSTATUS_SIE);
    80000c9c:	0027e793          	ori	a5,a5,2
  asm volatile("csrw sstatus, %0" : : "r" (x));
    80000ca0:	10079073          	csrw	sstatus,a5
    intr_on();
}
    80000ca4:	60a2                	ld	ra,8(sp)
    80000ca6:	6402                	ld	s0,0(sp)
    80000ca8:	0141                	addi	sp,sp,16
    80000caa:	8082                	ret
    panic("pop_off - interruptible");
    80000cac:	00007517          	auipc	a0,0x7
    80000cb0:	3cc50513          	addi	a0,a0,972 # 80008078 <digits+0x38>
    80000cb4:	00000097          	auipc	ra,0x0
    80000cb8:	89c080e7          	jalr	-1892(ra) # 80000550 <panic>
    panic("pop_off");
    80000cbc:	00007517          	auipc	a0,0x7
    80000cc0:	3d450513          	addi	a0,a0,980 # 80008090 <digits+0x50>
    80000cc4:	00000097          	auipc	ra,0x0
    80000cc8:	88c080e7          	jalr	-1908(ra) # 80000550 <panic>

0000000080000ccc <release>:
{
    80000ccc:	1101                	addi	sp,sp,-32
    80000cce:	ec06                	sd	ra,24(sp)
    80000cd0:	e822                	sd	s0,16(sp)
    80000cd2:	e426                	sd	s1,8(sp)
    80000cd4:	1000                	addi	s0,sp,32
    80000cd6:	84aa                	mv	s1,a0
  if(!holding(lk))
    80000cd8:	00000097          	auipc	ra,0x0
    80000cdc:	ec6080e7          	jalr	-314(ra) # 80000b9e <holding>
    80000ce0:	c115                	beqz	a0,80000d04 <release+0x38>
  lk->cpu = 0;
    80000ce2:	0004b823          	sd	zero,16(s1)
  __sync_synchronize();
    80000ce6:	0ff0000f          	fence
  __sync_lock_release(&lk->locked);
    80000cea:	0f50000f          	fence	iorw,ow
    80000cee:	0804a02f          	amoswap.w	zero,zero,(s1)
  pop_off();
    80000cf2:	00000097          	auipc	ra,0x0
    80000cf6:	f7a080e7          	jalr	-134(ra) # 80000c6c <pop_off>
}
    80000cfa:	60e2                	ld	ra,24(sp)
    80000cfc:	6442                	ld	s0,16(sp)
    80000cfe:	64a2                	ld	s1,8(sp)
    80000d00:	6105                	addi	sp,sp,32
    80000d02:	8082                	ret
    panic("release");
    80000d04:	00007517          	auipc	a0,0x7
    80000d08:	39450513          	addi	a0,a0,916 # 80008098 <digits+0x58>
    80000d0c:	00000097          	auipc	ra,0x0
    80000d10:	844080e7          	jalr	-1980(ra) # 80000550 <panic>

0000000080000d14 <memset>:
#include "types.h"

void*
memset(void *dst, int c, uint n)
{
    80000d14:	1141                	addi	sp,sp,-16
    80000d16:	e422                	sd	s0,8(sp)
    80000d18:	0800                	addi	s0,sp,16
  char *cdst = (char *) dst;
  int i;
  for(i = 0; i < n; i++){
    80000d1a:	ce09                	beqz	a2,80000d34 <memset+0x20>
    80000d1c:	87aa                	mv	a5,a0
    80000d1e:	fff6071b          	addiw	a4,a2,-1
    80000d22:	1702                	slli	a4,a4,0x20
    80000d24:	9301                	srli	a4,a4,0x20
    80000d26:	0705                	addi	a4,a4,1
    80000d28:	972a                	add	a4,a4,a0
    cdst[i] = c;
    80000d2a:	00b78023          	sb	a1,0(a5)
  for(i = 0; i < n; i++){
    80000d2e:	0785                	addi	a5,a5,1
    80000d30:	fee79de3          	bne	a5,a4,80000d2a <memset+0x16>
  }
  return dst;
}
    80000d34:	6422                	ld	s0,8(sp)
    80000d36:	0141                	addi	sp,sp,16
    80000d38:	8082                	ret

0000000080000d3a <memcmp>:

int
memcmp(const void *v1, const void *v2, uint n)
{
    80000d3a:	1141                	addi	sp,sp,-16
    80000d3c:	e422                	sd	s0,8(sp)
    80000d3e:	0800                	addi	s0,sp,16
  const uchar *s1, *s2;

  s1 = v1;
  s2 = v2;
  while(n-- > 0){
    80000d40:	ca05                	beqz	a2,80000d70 <memcmp+0x36>
    80000d42:	fff6069b          	addiw	a3,a2,-1
    80000d46:	1682                	slli	a3,a3,0x20
    80000d48:	9281                	srli	a3,a3,0x20
    80000d4a:	0685                	addi	a3,a3,1
    80000d4c:	96aa                	add	a3,a3,a0
    if(*s1 != *s2)
    80000d4e:	00054783          	lbu	a5,0(a0)
    80000d52:	0005c703          	lbu	a4,0(a1)
    80000d56:	00e79863          	bne	a5,a4,80000d66 <memcmp+0x2c>
      return *s1 - *s2;
    s1++, s2++;
    80000d5a:	0505                	addi	a0,a0,1
    80000d5c:	0585                	addi	a1,a1,1
  while(n-- > 0){
    80000d5e:	fed518e3          	bne	a0,a3,80000d4e <memcmp+0x14>
  }

  return 0;
    80000d62:	4501                	li	a0,0
    80000d64:	a019                	j	80000d6a <memcmp+0x30>
      return *s1 - *s2;
    80000d66:	40e7853b          	subw	a0,a5,a4
}
    80000d6a:	6422                	ld	s0,8(sp)
    80000d6c:	0141                	addi	sp,sp,16
    80000d6e:	8082                	ret
  return 0;
    80000d70:	4501                	li	a0,0
    80000d72:	bfe5                	j	80000d6a <memcmp+0x30>

0000000080000d74 <memmove>:

void*
memmove(void *dst, const void *src, uint n)
{
    80000d74:	1141                	addi	sp,sp,-16
    80000d76:	e422                	sd	s0,8(sp)
    80000d78:	0800                	addi	s0,sp,16
  const char *s;
  char *d;

  s = src;
  d = dst;
  if(s < d && s + n > d){
    80000d7a:	00a5f963          	bgeu	a1,a0,80000d8c <memmove+0x18>
    80000d7e:	02061713          	slli	a4,a2,0x20
    80000d82:	9301                	srli	a4,a4,0x20
    80000d84:	00e587b3          	add	a5,a1,a4
    80000d88:	02f56563          	bltu	a0,a5,80000db2 <memmove+0x3e>
    s += n;
    d += n;
    while(n-- > 0)
      *--d = *--s;
  } else
    while(n-- > 0)
    80000d8c:	fff6069b          	addiw	a3,a2,-1
    80000d90:	ce11                	beqz	a2,80000dac <memmove+0x38>
    80000d92:	1682                	slli	a3,a3,0x20
    80000d94:	9281                	srli	a3,a3,0x20
    80000d96:	0685                	addi	a3,a3,1
    80000d98:	96ae                	add	a3,a3,a1
    80000d9a:	87aa                	mv	a5,a0
      *d++ = *s++;
    80000d9c:	0585                	addi	a1,a1,1
    80000d9e:	0785                	addi	a5,a5,1
    80000da0:	fff5c703          	lbu	a4,-1(a1)
    80000da4:	fee78fa3          	sb	a4,-1(a5)
    while(n-- > 0)
    80000da8:	fed59ae3          	bne	a1,a3,80000d9c <memmove+0x28>

  return dst;
}
    80000dac:	6422                	ld	s0,8(sp)
    80000dae:	0141                	addi	sp,sp,16
    80000db0:	8082                	ret
    d += n;
    80000db2:	972a                	add	a4,a4,a0
    while(n-- > 0)
    80000db4:	fff6069b          	addiw	a3,a2,-1
    80000db8:	da75                	beqz	a2,80000dac <memmove+0x38>
    80000dba:	02069613          	slli	a2,a3,0x20
    80000dbe:	9201                	srli	a2,a2,0x20
    80000dc0:	fff64613          	not	a2,a2
    80000dc4:	963e                	add	a2,a2,a5
      *--d = *--s;
    80000dc6:	17fd                	addi	a5,a5,-1
    80000dc8:	177d                	addi	a4,a4,-1
    80000dca:	0007c683          	lbu	a3,0(a5)
    80000dce:	00d70023          	sb	a3,0(a4)
    while(n-- > 0)
    80000dd2:	fec79ae3          	bne	a5,a2,80000dc6 <memmove+0x52>
    80000dd6:	bfd9                	j	80000dac <memmove+0x38>

0000000080000dd8 <memcpy>:

// memcpy exists to placate GCC.  Use memmove.
void*
memcpy(void *dst, const void *src, uint n)
{
    80000dd8:	1141                	addi	sp,sp,-16
    80000dda:	e406                	sd	ra,8(sp)
    80000ddc:	e022                	sd	s0,0(sp)
    80000dde:	0800                	addi	s0,sp,16
  return memmove(dst, src, n);
    80000de0:	00000097          	auipc	ra,0x0
    80000de4:	f94080e7          	jalr	-108(ra) # 80000d74 <memmove>
}
    80000de8:	60a2                	ld	ra,8(sp)
    80000dea:	6402                	ld	s0,0(sp)
    80000dec:	0141                	addi	sp,sp,16
    80000dee:	8082                	ret

0000000080000df0 <strncmp>:

int
strncmp(const char *p, const char *q, uint n)
{
    80000df0:	1141                	addi	sp,sp,-16
    80000df2:	e422                	sd	s0,8(sp)
    80000df4:	0800                	addi	s0,sp,16
  while(n > 0 && *p && *p == *q)
    80000df6:	ce11                	beqz	a2,80000e12 <strncmp+0x22>
    80000df8:	00054783          	lbu	a5,0(a0)
    80000dfc:	cf89                	beqz	a5,80000e16 <strncmp+0x26>
    80000dfe:	0005c703          	lbu	a4,0(a1)
    80000e02:	00f71a63          	bne	a4,a5,80000e16 <strncmp+0x26>
    n--, p++, q++;
    80000e06:	367d                	addiw	a2,a2,-1
    80000e08:	0505                	addi	a0,a0,1
    80000e0a:	0585                	addi	a1,a1,1
  while(n > 0 && *p && *p == *q)
    80000e0c:	f675                	bnez	a2,80000df8 <strncmp+0x8>
  if(n == 0)
    return 0;
    80000e0e:	4501                	li	a0,0
    80000e10:	a809                	j	80000e22 <strncmp+0x32>
    80000e12:	4501                	li	a0,0
    80000e14:	a039                	j	80000e22 <strncmp+0x32>
  if(n == 0)
    80000e16:	ca09                	beqz	a2,80000e28 <strncmp+0x38>
  return (uchar)*p - (uchar)*q;
    80000e18:	00054503          	lbu	a0,0(a0)
    80000e1c:	0005c783          	lbu	a5,0(a1)
    80000e20:	9d1d                	subw	a0,a0,a5
}
    80000e22:	6422                	ld	s0,8(sp)
    80000e24:	0141                	addi	sp,sp,16
    80000e26:	8082                	ret
    return 0;
    80000e28:	4501                	li	a0,0
    80000e2a:	bfe5                	j	80000e22 <strncmp+0x32>

0000000080000e2c <strncpy>:

char*
strncpy(char *s, const char *t, int n)
{
    80000e2c:	1141                	addi	sp,sp,-16
    80000e2e:	e422                	sd	s0,8(sp)
    80000e30:	0800                	addi	s0,sp,16
  char *os;

  os = s;
  while(n-- > 0 && (*s++ = *t++) != 0)
    80000e32:	872a                	mv	a4,a0
    80000e34:	8832                	mv	a6,a2
    80000e36:	367d                	addiw	a2,a2,-1
    80000e38:	01005963          	blez	a6,80000e4a <strncpy+0x1e>
    80000e3c:	0705                	addi	a4,a4,1
    80000e3e:	0005c783          	lbu	a5,0(a1)
    80000e42:	fef70fa3          	sb	a5,-1(a4)
    80000e46:	0585                	addi	a1,a1,1
    80000e48:	f7f5                	bnez	a5,80000e34 <strncpy+0x8>
    ;
  while(n-- > 0)
    80000e4a:	00c05d63          	blez	a2,80000e64 <strncpy+0x38>
    80000e4e:	86ba                	mv	a3,a4
    *s++ = 0;
    80000e50:	0685                	addi	a3,a3,1
    80000e52:	fe068fa3          	sb	zero,-1(a3)
  while(n-- > 0)
    80000e56:	fff6c793          	not	a5,a3
    80000e5a:	9fb9                	addw	a5,a5,a4
    80000e5c:	010787bb          	addw	a5,a5,a6
    80000e60:	fef048e3          	bgtz	a5,80000e50 <strncpy+0x24>
  return os;
}
    80000e64:	6422                	ld	s0,8(sp)
    80000e66:	0141                	addi	sp,sp,16
    80000e68:	8082                	ret

0000000080000e6a <safestrcpy>:

// Like strncpy but guaranteed to NUL-terminate.
char*
safestrcpy(char *s, const char *t, int n)
{
    80000e6a:	1141                	addi	sp,sp,-16
    80000e6c:	e422                	sd	s0,8(sp)
    80000e6e:	0800                	addi	s0,sp,16
  char *os;

  os = s;
  if(n <= 0)
    80000e70:	02c05363          	blez	a2,80000e96 <safestrcpy+0x2c>
    80000e74:	fff6069b          	addiw	a3,a2,-1
    80000e78:	1682                	slli	a3,a3,0x20
    80000e7a:	9281                	srli	a3,a3,0x20
    80000e7c:	96ae                	add	a3,a3,a1
    80000e7e:	87aa                	mv	a5,a0
    return os;
  while(--n > 0 && (*s++ = *t++) != 0)
    80000e80:	00d58963          	beq	a1,a3,80000e92 <safestrcpy+0x28>
    80000e84:	0585                	addi	a1,a1,1
    80000e86:	0785                	addi	a5,a5,1
    80000e88:	fff5c703          	lbu	a4,-1(a1)
    80000e8c:	fee78fa3          	sb	a4,-1(a5)
    80000e90:	fb65                	bnez	a4,80000e80 <safestrcpy+0x16>
    ;
  *s = 0;
    80000e92:	00078023          	sb	zero,0(a5)
  return os;
}
    80000e96:	6422                	ld	s0,8(sp)
    80000e98:	0141                	addi	sp,sp,16
    80000e9a:	8082                	ret

0000000080000e9c <strlen>:

int
strlen(const char *s)
{
    80000e9c:	1141                	addi	sp,sp,-16
    80000e9e:	e422                	sd	s0,8(sp)
    80000ea0:	0800                	addi	s0,sp,16
  int n;

  for(n = 0; s[n]; n++)
    80000ea2:	00054783          	lbu	a5,0(a0)
    80000ea6:	cf91                	beqz	a5,80000ec2 <strlen+0x26>
    80000ea8:	0505                	addi	a0,a0,1
    80000eaa:	87aa                	mv	a5,a0
    80000eac:	4685                	li	a3,1
    80000eae:	9e89                	subw	a3,a3,a0
    80000eb0:	00f6853b          	addw	a0,a3,a5
    80000eb4:	0785                	addi	a5,a5,1
    80000eb6:	fff7c703          	lbu	a4,-1(a5)
    80000eba:	fb7d                	bnez	a4,80000eb0 <strlen+0x14>
    ;
  return n;
}
    80000ebc:	6422                	ld	s0,8(sp)
    80000ebe:	0141                	addi	sp,sp,16
    80000ec0:	8082                	ret
  for(n = 0; s[n]; n++)
    80000ec2:	4501                	li	a0,0
    80000ec4:	bfe5                	j	80000ebc <strlen+0x20>

0000000080000ec6 <main>:
volatile static int started = 0;

// start() jumps here in supervisor mode on all CPUs.
void
main()
{
    80000ec6:	1141                	addi	sp,sp,-16
    80000ec8:	e406                	sd	ra,8(sp)
    80000eca:	e022                	sd	s0,0(sp)
    80000ecc:	0800                	addi	s0,sp,16
  if(cpuid() == 0){
    80000ece:	00001097          	auipc	ra,0x1
    80000ed2:	a7a080e7          	jalr	-1414(ra) # 80001948 <cpuid>
    virtio_disk_init(); // emulated hard disk
    userinit();      // first user process
    __sync_synchronize();
    started = 1;
  } else {
    while(started == 0)
    80000ed6:	00008717          	auipc	a4,0x8
    80000eda:	13670713          	addi	a4,a4,310 # 8000900c <started>
  if(cpuid() == 0){
    80000ede:	c139                	beqz	a0,80000f24 <main+0x5e>
    while(started == 0)
    80000ee0:	431c                	lw	a5,0(a4)
    80000ee2:	2781                	sext.w	a5,a5
    80000ee4:	dff5                	beqz	a5,80000ee0 <main+0x1a>
      ;
    __sync_synchronize();
    80000ee6:	0ff0000f          	fence
    printf("hart %d starting\n", cpuid());
    80000eea:	00001097          	auipc	ra,0x1
    80000eee:	a5e080e7          	jalr	-1442(ra) # 80001948 <cpuid>
    80000ef2:	85aa                	mv	a1,a0
    80000ef4:	00007517          	auipc	a0,0x7
    80000ef8:	1c450513          	addi	a0,a0,452 # 800080b8 <digits+0x78>
    80000efc:	fffff097          	auipc	ra,0xfffff
    80000f00:	69e080e7          	jalr	1694(ra) # 8000059a <printf>
    kvminithart();    // turn on paging
    80000f04:	00000097          	auipc	ra,0x0
    80000f08:	17e080e7          	jalr	382(ra) # 80001082 <kvminithart>
    trapinithart();   // install kernel trap vector
    80000f0c:	00001097          	auipc	ra,0x1
    80000f10:	6c6080e7          	jalr	1734(ra) # 800025d2 <trapinithart>
    plicinithart();   // ask PLIC for device interrupts
    80000f14:	00005097          	auipc	ra,0x5
    80000f18:	c6c080e7          	jalr	-916(ra) # 80005b80 <plicinithart>
  }

  scheduler();        
    80000f1c:	00001097          	auipc	ra,0x1
    80000f20:	f88080e7          	jalr	-120(ra) # 80001ea4 <scheduler>
    consoleinit();
    80000f24:	fffff097          	auipc	ra,0xfffff
    80000f28:	53e080e7          	jalr	1342(ra) # 80000462 <consoleinit>
    printfinit();
    80000f2c:	00000097          	auipc	ra,0x0
    80000f30:	854080e7          	jalr	-1964(ra) # 80000780 <printfinit>
    printf("\n");
    80000f34:	00007517          	auipc	a0,0x7
    80000f38:	19450513          	addi	a0,a0,404 # 800080c8 <digits+0x88>
    80000f3c:	fffff097          	auipc	ra,0xfffff
    80000f40:	65e080e7          	jalr	1630(ra) # 8000059a <printf>
    printf("xv6 kernel is booting\n");
    80000f44:	00007517          	auipc	a0,0x7
    80000f48:	15c50513          	addi	a0,a0,348 # 800080a0 <digits+0x60>
    80000f4c:	fffff097          	auipc	ra,0xfffff
    80000f50:	64e080e7          	jalr	1614(ra) # 8000059a <printf>
    printf("\n");
    80000f54:	00007517          	auipc	a0,0x7
    80000f58:	17450513          	addi	a0,a0,372 # 800080c8 <digits+0x88>
    80000f5c:	fffff097          	auipc	ra,0xfffff
    80000f60:	63e080e7          	jalr	1598(ra) # 8000059a <printf>
    kinit();         // physical page allocator
    80000f64:	00000097          	auipc	ra,0x0
    80000f68:	b88080e7          	jalr	-1144(ra) # 80000aec <kinit>
    kvminit();       // create kernel page table
    80000f6c:	00000097          	auipc	ra,0x0
    80000f70:	242080e7          	jalr	578(ra) # 800011ae <kvminit>
    kvminithart();   // turn on paging
    80000f74:	00000097          	auipc	ra,0x0
    80000f78:	10e080e7          	jalr	270(ra) # 80001082 <kvminithart>
    procinit();      // process table
    80000f7c:	00001097          	auipc	ra,0x1
    80000f80:	8fc080e7          	jalr	-1796(ra) # 80001878 <procinit>
    trapinit();      // trap vectors
    80000f84:	00001097          	auipc	ra,0x1
    80000f88:	626080e7          	jalr	1574(ra) # 800025aa <trapinit>
    trapinithart();  // install kernel trap vector
    80000f8c:	00001097          	auipc	ra,0x1
    80000f90:	646080e7          	jalr	1606(ra) # 800025d2 <trapinithart>
    plicinit();      // set up interrupt controller
    80000f94:	00005097          	auipc	ra,0x5
    80000f98:	bd6080e7          	jalr	-1066(ra) # 80005b6a <plicinit>
    plicinithart();  // ask PLIC for device interrupts
    80000f9c:	00005097          	auipc	ra,0x5
    80000fa0:	be4080e7          	jalr	-1052(ra) # 80005b80 <plicinithart>
    binit();         // buffer cache
    80000fa4:	00002097          	auipc	ra,0x2
    80000fa8:	d70080e7          	jalr	-656(ra) # 80002d14 <binit>
    iinit();         // inode cache
    80000fac:	00002097          	auipc	ra,0x2
    80000fb0:	400080e7          	jalr	1024(ra) # 800033ac <iinit>
    fileinit();      // file table
    80000fb4:	00003097          	auipc	ra,0x3
    80000fb8:	3b0080e7          	jalr	944(ra) # 80004364 <fileinit>
    virtio_disk_init(); // emulated hard disk
    80000fbc:	00005097          	auipc	ra,0x5
    80000fc0:	ce6080e7          	jalr	-794(ra) # 80005ca2 <virtio_disk_init>
    userinit();      // first user process
    80000fc4:	00001097          	auipc	ra,0x1
    80000fc8:	c7a080e7          	jalr	-902(ra) # 80001c3e <userinit>
    __sync_synchronize();
    80000fcc:	0ff0000f          	fence
    started = 1;
    80000fd0:	4785                	li	a5,1
    80000fd2:	00008717          	auipc	a4,0x8
    80000fd6:	02f72d23          	sw	a5,58(a4) # 8000900c <started>
    80000fda:	b789                	j	80000f1c <main+0x56>

0000000080000fdc <walk>:
//   21..29 -- 9 bits of level-1 index.
//   12..20 -- 9 bits of level-0 index.
//    0..11 -- 12 bits of byte offset within the page.
static pte_t *
walk(pagetable_t pagetable, uint64 va, int alloc)
{
    80000fdc:	7139                	addi	sp,sp,-64
    80000fde:	fc06                	sd	ra,56(sp)
    80000fe0:	f822                	sd	s0,48(sp)
    80000fe2:	f426                	sd	s1,40(sp)
    80000fe4:	f04a                	sd	s2,32(sp)
    80000fe6:	ec4e                	sd	s3,24(sp)
    80000fe8:	e852                	sd	s4,16(sp)
    80000fea:	e456                	sd	s5,8(sp)
    80000fec:	e05a                	sd	s6,0(sp)
    80000fee:	0080                	addi	s0,sp,64
    80000ff0:	84aa                	mv	s1,a0
    80000ff2:	89ae                	mv	s3,a1
    80000ff4:	8ab2                	mv	s5,a2
  if(va >= MAXVA)
    80000ff6:	57fd                	li	a5,-1
    80000ff8:	83e9                	srli	a5,a5,0x1a
    80000ffa:	4a79                	li	s4,30
    panic("walk");

  for(int level = 2; level > 0; level--) {
    80000ffc:	4b31                	li	s6,12
  if(va >= MAXVA)
    80000ffe:	04b7f263          	bgeu	a5,a1,80001042 <walk+0x66>
    panic("walk");
    80001002:	00007517          	auipc	a0,0x7
    80001006:	0ce50513          	addi	a0,a0,206 # 800080d0 <digits+0x90>
    8000100a:	fffff097          	auipc	ra,0xfffff
    8000100e:	546080e7          	jalr	1350(ra) # 80000550 <panic>
    pte_t *pte = &pagetable[PX(level, va)];
    if(*pte & PTE_V) {
      pagetable = (pagetable_t)PTE2PA(*pte);
    } else {
      if(!alloc || (pagetable = (pde_t*)kalloc()) == 0)
    80001012:	060a8663          	beqz	s5,8000107e <walk+0xa2>
    80001016:	00000097          	auipc	ra,0x0
    8000101a:	b12080e7          	jalr	-1262(ra) # 80000b28 <kalloc>
    8000101e:	84aa                	mv	s1,a0
    80001020:	c529                	beqz	a0,8000106a <walk+0x8e>
        return 0;
      memset(pagetable, 0, PGSIZE);
    80001022:	6605                	lui	a2,0x1
    80001024:	4581                	li	a1,0
    80001026:	00000097          	auipc	ra,0x0
    8000102a:	cee080e7          	jalr	-786(ra) # 80000d14 <memset>
      *pte = PA2PTE(pagetable) | PTE_V;
    8000102e:	00c4d793          	srli	a5,s1,0xc
    80001032:	07aa                	slli	a5,a5,0xa
    80001034:	0017e793          	ori	a5,a5,1
    80001038:	00f93023          	sd	a5,0(s2)
  for(int level = 2; level > 0; level--) {
    8000103c:	3a5d                	addiw	s4,s4,-9
    8000103e:	036a0063          	beq	s4,s6,8000105e <walk+0x82>
    pte_t *pte = &pagetable[PX(level, va)];
    80001042:	0149d933          	srl	s2,s3,s4
    80001046:	1ff97913          	andi	s2,s2,511
    8000104a:	090e                	slli	s2,s2,0x3
    8000104c:	9926                	add	s2,s2,s1
    if(*pte & PTE_V) {
    8000104e:	00093483          	ld	s1,0(s2)
    80001052:	0014f793          	andi	a5,s1,1
    80001056:	dfd5                	beqz	a5,80001012 <walk+0x36>
      pagetable = (pagetable_t)PTE2PA(*pte);
    80001058:	80a9                	srli	s1,s1,0xa
    8000105a:	04b2                	slli	s1,s1,0xc
    8000105c:	b7c5                	j	8000103c <walk+0x60>
    }
  }
  return &pagetable[PX(0, va)];
    8000105e:	00c9d513          	srli	a0,s3,0xc
    80001062:	1ff57513          	andi	a0,a0,511
    80001066:	050e                	slli	a0,a0,0x3
    80001068:	9526                	add	a0,a0,s1
}
    8000106a:	70e2                	ld	ra,56(sp)
    8000106c:	7442                	ld	s0,48(sp)
    8000106e:	74a2                	ld	s1,40(sp)
    80001070:	7902                	ld	s2,32(sp)
    80001072:	69e2                	ld	s3,24(sp)
    80001074:	6a42                	ld	s4,16(sp)
    80001076:	6aa2                	ld	s5,8(sp)
    80001078:	6b02                	ld	s6,0(sp)
    8000107a:	6121                	addi	sp,sp,64
    8000107c:	8082                	ret
        return 0;
    8000107e:	4501                	li	a0,0
    80001080:	b7ed                	j	8000106a <walk+0x8e>

0000000080001082 <kvminithart>:
{
    80001082:	1141                	addi	sp,sp,-16
    80001084:	e422                	sd	s0,8(sp)
    80001086:	0800                	addi	s0,sp,16
  w_satp(MAKE_SATP(kernel_pagetable));
    80001088:	00008797          	auipc	a5,0x8
    8000108c:	f887b783          	ld	a5,-120(a5) # 80009010 <kernel_pagetable>
    80001090:	83b1                	srli	a5,a5,0xc
    80001092:	577d                	li	a4,-1
    80001094:	177e                	slli	a4,a4,0x3f
    80001096:	8fd9                	or	a5,a5,a4
  asm volatile("csrw satp, %0" : : "r" (x));
    80001098:	18079073          	csrw	satp,a5
// flush the TLB.
static inline void
sfence_vma()
{
  // the zero, zero means flush all TLB entries.
  asm volatile("sfence.vma zero, zero");
    8000109c:	12000073          	sfence.vma
}
    800010a0:	6422                	ld	s0,8(sp)
    800010a2:	0141                	addi	sp,sp,16
    800010a4:	8082                	ret

00000000800010a6 <walkaddr>:
walkaddr(pagetable_t pagetable, uint64 va)
{
  pte_t *pte;
  uint64 pa;

  if(va >= MAXVA)
    800010a6:	57fd                	li	a5,-1
    800010a8:	83e9                	srli	a5,a5,0x1a
    800010aa:	00b7f463          	bgeu	a5,a1,800010b2 <walkaddr+0xc>
    return 0;
    800010ae:	4501                	li	a0,0
    return 0;
  if((*pte & PTE_U) == 0)
    return 0;
  pa = PTE2PA(*pte);
  return pa;
}
    800010b0:	8082                	ret
{
    800010b2:	1141                	addi	sp,sp,-16
    800010b4:	e406                	sd	ra,8(sp)
    800010b6:	e022                	sd	s0,0(sp)
    800010b8:	0800                	addi	s0,sp,16
  pte = walk(pagetable, va, 0);
    800010ba:	4601                	li	a2,0
    800010bc:	00000097          	auipc	ra,0x0
    800010c0:	f20080e7          	jalr	-224(ra) # 80000fdc <walk>
  if(pte == 0)
    800010c4:	c105                	beqz	a0,800010e4 <walkaddr+0x3e>
  if((*pte & PTE_V) == 0)
    800010c6:	611c                	ld	a5,0(a0)
  if((*pte & PTE_U) == 0)
    800010c8:	0117f693          	andi	a3,a5,17
    800010cc:	4745                	li	a4,17
    return 0;
    800010ce:	4501                	li	a0,0
  if((*pte & PTE_U) == 0)
    800010d0:	00e68663          	beq	a3,a4,800010dc <walkaddr+0x36>
}
    800010d4:	60a2                	ld	ra,8(sp)
    800010d6:	6402                	ld	s0,0(sp)
    800010d8:	0141                	addi	sp,sp,16
    800010da:	8082                	ret
  pa = PTE2PA(*pte);
    800010dc:	00a7d513          	srli	a0,a5,0xa
    800010e0:	0532                	slli	a0,a0,0xc
  return pa;
    800010e2:	bfcd                	j	800010d4 <walkaddr+0x2e>
    return 0;
    800010e4:	4501                	li	a0,0
    800010e6:	b7fd                	j	800010d4 <walkaddr+0x2e>

00000000800010e8 <mappages>:
// physical addresses starting at pa. va and size might not
// be page-aligned. Returns 0 on success, -1 if walk() couldn't
// allocate a needed page-table page.
int
mappages(pagetable_t pagetable, uint64 va, uint64 size, uint64 pa, int perm)
{
    800010e8:	715d                	addi	sp,sp,-80
    800010ea:	e486                	sd	ra,72(sp)
    800010ec:	e0a2                	sd	s0,64(sp)
    800010ee:	fc26                	sd	s1,56(sp)
    800010f0:	f84a                	sd	s2,48(sp)
    800010f2:	f44e                	sd	s3,40(sp)
    800010f4:	f052                	sd	s4,32(sp)
    800010f6:	ec56                	sd	s5,24(sp)
    800010f8:	e85a                	sd	s6,16(sp)
    800010fa:	e45e                	sd	s7,8(sp)
    800010fc:	0880                	addi	s0,sp,80
    800010fe:	8aaa                	mv	s5,a0
    80001100:	8b3a                	mv	s6,a4
  uint64 a, last;
  pte_t *pte;

  a = PGROUNDDOWN(va);
    80001102:	777d                	lui	a4,0xfffff
    80001104:	00e5f7b3          	and	a5,a1,a4
  last = PGROUNDDOWN(va + size - 1);
    80001108:	167d                	addi	a2,a2,-1
    8000110a:	00b609b3          	add	s3,a2,a1
    8000110e:	00e9f9b3          	and	s3,s3,a4
  a = PGROUNDDOWN(va);
    80001112:	893e                	mv	s2,a5
    80001114:	40f68a33          	sub	s4,a3,a5
    if(*pte & PTE_V)
      panic("remap");
    *pte = PA2PTE(pa) | perm | PTE_V;
    if(a == last)
      break;
    a += PGSIZE;
    80001118:	6b85                	lui	s7,0x1
    8000111a:	012a04b3          	add	s1,s4,s2
    if((pte = walk(pagetable, a, 1)) == 0)
    8000111e:	4605                	li	a2,1
    80001120:	85ca                	mv	a1,s2
    80001122:	8556                	mv	a0,s5
    80001124:	00000097          	auipc	ra,0x0
    80001128:	eb8080e7          	jalr	-328(ra) # 80000fdc <walk>
    8000112c:	c51d                	beqz	a0,8000115a <mappages+0x72>
    if(*pte & PTE_V)
    8000112e:	611c                	ld	a5,0(a0)
    80001130:	8b85                	andi	a5,a5,1
    80001132:	ef81                	bnez	a5,8000114a <mappages+0x62>
    *pte = PA2PTE(pa) | perm | PTE_V;
    80001134:	80b1                	srli	s1,s1,0xc
    80001136:	04aa                	slli	s1,s1,0xa
    80001138:	0164e4b3          	or	s1,s1,s6
    8000113c:	0014e493          	ori	s1,s1,1
    80001140:	e104                	sd	s1,0(a0)
    if(a == last)
    80001142:	03390863          	beq	s2,s3,80001172 <mappages+0x8a>
    a += PGSIZE;
    80001146:	995e                	add	s2,s2,s7
    if((pte = walk(pagetable, a, 1)) == 0)
    80001148:	bfc9                	j	8000111a <mappages+0x32>
      panic("remap");
    8000114a:	00007517          	auipc	a0,0x7
    8000114e:	f8e50513          	addi	a0,a0,-114 # 800080d8 <digits+0x98>
    80001152:	fffff097          	auipc	ra,0xfffff
    80001156:	3fe080e7          	jalr	1022(ra) # 80000550 <panic>
      return -1;
    8000115a:	557d                	li	a0,-1
    pa += PGSIZE;
  }
  return 0;
}
    8000115c:	60a6                	ld	ra,72(sp)
    8000115e:	6406                	ld	s0,64(sp)
    80001160:	74e2                	ld	s1,56(sp)
    80001162:	7942                	ld	s2,48(sp)
    80001164:	79a2                	ld	s3,40(sp)
    80001166:	7a02                	ld	s4,32(sp)
    80001168:	6ae2                	ld	s5,24(sp)
    8000116a:	6b42                	ld	s6,16(sp)
    8000116c:	6ba2                	ld	s7,8(sp)
    8000116e:	6161                	addi	sp,sp,80
    80001170:	8082                	ret
  return 0;
    80001172:	4501                	li	a0,0
    80001174:	b7e5                	j	8000115c <mappages+0x74>

0000000080001176 <kvmmap>:
{
    80001176:	1141                	addi	sp,sp,-16
    80001178:	e406                	sd	ra,8(sp)
    8000117a:	e022                	sd	s0,0(sp)
    8000117c:	0800                	addi	s0,sp,16
    8000117e:	8736                	mv	a4,a3
  if(mappages(kernel_pagetable, va, sz, pa, perm) != 0)
    80001180:	86ae                	mv	a3,a1
    80001182:	85aa                	mv	a1,a0
    80001184:	00008517          	auipc	a0,0x8
    80001188:	e8c53503          	ld	a0,-372(a0) # 80009010 <kernel_pagetable>
    8000118c:	00000097          	auipc	ra,0x0
    80001190:	f5c080e7          	jalr	-164(ra) # 800010e8 <mappages>
    80001194:	e509                	bnez	a0,8000119e <kvmmap+0x28>
}
    80001196:	60a2                	ld	ra,8(sp)
    80001198:	6402                	ld	s0,0(sp)
    8000119a:	0141                	addi	sp,sp,16
    8000119c:	8082                	ret
    panic("kvmmap");
    8000119e:	00007517          	auipc	a0,0x7
    800011a2:	f4250513          	addi	a0,a0,-190 # 800080e0 <digits+0xa0>
    800011a6:	fffff097          	auipc	ra,0xfffff
    800011aa:	3aa080e7          	jalr	938(ra) # 80000550 <panic>

00000000800011ae <kvminit>:
{
    800011ae:	1101                	addi	sp,sp,-32
    800011b0:	ec06                	sd	ra,24(sp)
    800011b2:	e822                	sd	s0,16(sp)
    800011b4:	e426                	sd	s1,8(sp)
    800011b6:	1000                	addi	s0,sp,32
  kernel_pagetable = (pagetable_t) kalloc();
    800011b8:	00000097          	auipc	ra,0x0
    800011bc:	970080e7          	jalr	-1680(ra) # 80000b28 <kalloc>
    800011c0:	00008797          	auipc	a5,0x8
    800011c4:	e4a7b823          	sd	a0,-432(a5) # 80009010 <kernel_pagetable>
  memset(kernel_pagetable, 0, PGSIZE);
    800011c8:	6605                	lui	a2,0x1
    800011ca:	4581                	li	a1,0
    800011cc:	00000097          	auipc	ra,0x0
    800011d0:	b48080e7          	jalr	-1208(ra) # 80000d14 <memset>
  kvmmap(UART0, UART0, PGSIZE, PTE_R | PTE_W);
    800011d4:	4699                	li	a3,6
    800011d6:	6605                	lui	a2,0x1
    800011d8:	100005b7          	lui	a1,0x10000
    800011dc:	10000537          	lui	a0,0x10000
    800011e0:	00000097          	auipc	ra,0x0
    800011e4:	f96080e7          	jalr	-106(ra) # 80001176 <kvmmap>
  kvmmap(VIRTIO0, VIRTIO0, PGSIZE, PTE_R | PTE_W);
    800011e8:	4699                	li	a3,6
    800011ea:	6605                	lui	a2,0x1
    800011ec:	100015b7          	lui	a1,0x10001
    800011f0:	10001537          	lui	a0,0x10001
    800011f4:	00000097          	auipc	ra,0x0
    800011f8:	f82080e7          	jalr	-126(ra) # 80001176 <kvmmap>
  kvmmap(PLIC, PLIC, 0x400000, PTE_R | PTE_W);
    800011fc:	4699                	li	a3,6
    800011fe:	00400637          	lui	a2,0x400
    80001202:	0c0005b7          	lui	a1,0xc000
    80001206:	0c000537          	lui	a0,0xc000
    8000120a:	00000097          	auipc	ra,0x0
    8000120e:	f6c080e7          	jalr	-148(ra) # 80001176 <kvmmap>
  kvmmap(KERNBASE, KERNBASE, (uint64)etext-KERNBASE, PTE_R | PTE_X);
    80001212:	00007497          	auipc	s1,0x7
    80001216:	dee48493          	addi	s1,s1,-530 # 80008000 <etext>
    8000121a:	46a9                	li	a3,10
    8000121c:	80007617          	auipc	a2,0x80007
    80001220:	de460613          	addi	a2,a2,-540 # 8000 <_entry-0x7fff8000>
    80001224:	4585                	li	a1,1
    80001226:	05fe                	slli	a1,a1,0x1f
    80001228:	852e                	mv	a0,a1
    8000122a:	00000097          	auipc	ra,0x0
    8000122e:	f4c080e7          	jalr	-180(ra) # 80001176 <kvmmap>
  kvmmap((uint64)etext, (uint64)etext, PHYSTOP-(uint64)etext, PTE_R | PTE_W);
    80001232:	4699                	li	a3,6
    80001234:	4645                	li	a2,17
    80001236:	066e                	slli	a2,a2,0x1b
    80001238:	8e05                	sub	a2,a2,s1
    8000123a:	85a6                	mv	a1,s1
    8000123c:	8526                	mv	a0,s1
    8000123e:	00000097          	auipc	ra,0x0
    80001242:	f38080e7          	jalr	-200(ra) # 80001176 <kvmmap>
  kvmmap(TRAMPOLINE, (uint64)trampoline, PGSIZE, PTE_R | PTE_X);
    80001246:	46a9                	li	a3,10
    80001248:	6605                	lui	a2,0x1
    8000124a:	00006597          	auipc	a1,0x6
    8000124e:	db658593          	addi	a1,a1,-586 # 80007000 <_trampoline>
    80001252:	04000537          	lui	a0,0x4000
    80001256:	157d                	addi	a0,a0,-1
    80001258:	0532                	slli	a0,a0,0xc
    8000125a:	00000097          	auipc	ra,0x0
    8000125e:	f1c080e7          	jalr	-228(ra) # 80001176 <kvmmap>
}
    80001262:	60e2                	ld	ra,24(sp)
    80001264:	6442                	ld	s0,16(sp)
    80001266:	64a2                	ld	s1,8(sp)
    80001268:	6105                	addi	sp,sp,32
    8000126a:	8082                	ret

000000008000126c <uvmunmap>:
// Remove npages of mappings starting from va. va must be
// page-aligned. The mappings must exist.
// Optionally free the physical memory.
void
uvmunmap(pagetable_t pagetable, uint64 va, uint64 npages, int do_free)
{
    8000126c:	715d                	addi	sp,sp,-80
    8000126e:	e486                	sd	ra,72(sp)
    80001270:	e0a2                	sd	s0,64(sp)
    80001272:	fc26                	sd	s1,56(sp)
    80001274:	f84a                	sd	s2,48(sp)
    80001276:	f44e                	sd	s3,40(sp)
    80001278:	f052                	sd	s4,32(sp)
    8000127a:	ec56                	sd	s5,24(sp)
    8000127c:	e85a                	sd	s6,16(sp)
    8000127e:	e45e                	sd	s7,8(sp)
    80001280:	0880                	addi	s0,sp,80
  uint64 a;
  pte_t *pte;

  if((va % PGSIZE) != 0)
    80001282:	03459793          	slli	a5,a1,0x34
    80001286:	e795                	bnez	a5,800012b2 <uvmunmap+0x46>
    80001288:	8a2a                	mv	s4,a0
    8000128a:	892e                	mv	s2,a1
    8000128c:	8ab6                	mv	s5,a3
    panic("uvmunmap: not aligned");

  for(a = va; a < va + npages*PGSIZE; a += PGSIZE){
    8000128e:	0632                	slli	a2,a2,0xc
    80001290:	00b609b3          	add	s3,a2,a1
    if((pte = walk(pagetable, a, 0)) == 0)
      panic("uvmunmap: walk");
    if((*pte & PTE_V) == 0)
      panic("uvmunmap: not mapped");
    if(PTE_FLAGS(*pte) == PTE_V)
    80001294:	4b85                	li	s7,1
  for(a = va; a < va + npages*PGSIZE; a += PGSIZE){
    80001296:	6b05                	lui	s6,0x1
    80001298:	0735e863          	bltu	a1,s3,80001308 <uvmunmap+0x9c>
      uint64 pa = PTE2PA(*pte);
      kfree((void*)pa);
    }
    *pte = 0;
  }
}
    8000129c:	60a6                	ld	ra,72(sp)
    8000129e:	6406                	ld	s0,64(sp)
    800012a0:	74e2                	ld	s1,56(sp)
    800012a2:	7942                	ld	s2,48(sp)
    800012a4:	79a2                	ld	s3,40(sp)
    800012a6:	7a02                	ld	s4,32(sp)
    800012a8:	6ae2                	ld	s5,24(sp)
    800012aa:	6b42                	ld	s6,16(sp)
    800012ac:	6ba2                	ld	s7,8(sp)
    800012ae:	6161                	addi	sp,sp,80
    800012b0:	8082                	ret
    panic("uvmunmap: not aligned");
    800012b2:	00007517          	auipc	a0,0x7
    800012b6:	e3650513          	addi	a0,a0,-458 # 800080e8 <digits+0xa8>
    800012ba:	fffff097          	auipc	ra,0xfffff
    800012be:	296080e7          	jalr	662(ra) # 80000550 <panic>
      panic("uvmunmap: walk");
    800012c2:	00007517          	auipc	a0,0x7
    800012c6:	e3e50513          	addi	a0,a0,-450 # 80008100 <digits+0xc0>
    800012ca:	fffff097          	auipc	ra,0xfffff
    800012ce:	286080e7          	jalr	646(ra) # 80000550 <panic>
      panic("uvmunmap: not mapped");
    800012d2:	00007517          	auipc	a0,0x7
    800012d6:	e3e50513          	addi	a0,a0,-450 # 80008110 <digits+0xd0>
    800012da:	fffff097          	auipc	ra,0xfffff
    800012de:	276080e7          	jalr	630(ra) # 80000550 <panic>
      panic("uvmunmap: not a leaf");
    800012e2:	00007517          	auipc	a0,0x7
    800012e6:	e4650513          	addi	a0,a0,-442 # 80008128 <digits+0xe8>
    800012ea:	fffff097          	auipc	ra,0xfffff
    800012ee:	266080e7          	jalr	614(ra) # 80000550 <panic>
      uint64 pa = PTE2PA(*pte);
    800012f2:	8129                	srli	a0,a0,0xa
      kfree((void*)pa);
    800012f4:	0532                	slli	a0,a0,0xc
    800012f6:	fffff097          	auipc	ra,0xfffff
    800012fa:	736080e7          	jalr	1846(ra) # 80000a2c <kfree>
    *pte = 0;
    800012fe:	0004b023          	sd	zero,0(s1)
  for(a = va; a < va + npages*PGSIZE; a += PGSIZE){
    80001302:	995a                	add	s2,s2,s6
    80001304:	f9397ce3          	bgeu	s2,s3,8000129c <uvmunmap+0x30>
    if((pte = walk(pagetable, a, 0)) == 0)
    80001308:	4601                	li	a2,0
    8000130a:	85ca                	mv	a1,s2
    8000130c:	8552                	mv	a0,s4
    8000130e:	00000097          	auipc	ra,0x0
    80001312:	cce080e7          	jalr	-818(ra) # 80000fdc <walk>
    80001316:	84aa                	mv	s1,a0
    80001318:	d54d                	beqz	a0,800012c2 <uvmunmap+0x56>
    if((*pte & PTE_V) == 0)
    8000131a:	6108                	ld	a0,0(a0)
    8000131c:	00157793          	andi	a5,a0,1
    80001320:	dbcd                	beqz	a5,800012d2 <uvmunmap+0x66>
    if(PTE_FLAGS(*pte) == PTE_V)
    80001322:	3ff57793          	andi	a5,a0,1023
    80001326:	fb778ee3          	beq	a5,s7,800012e2 <uvmunmap+0x76>
    if(do_free){
    8000132a:	fc0a8ae3          	beqz	s5,800012fe <uvmunmap+0x92>
    8000132e:	b7d1                	j	800012f2 <uvmunmap+0x86>

0000000080001330 <uvmcreate>:

// create an empty user page table.
// returns 0 if out of memory.
pagetable_t
uvmcreate()
{
    80001330:	1101                	addi	sp,sp,-32
    80001332:	ec06                	sd	ra,24(sp)
    80001334:	e822                	sd	s0,16(sp)
    80001336:	e426                	sd	s1,8(sp)
    80001338:	1000                	addi	s0,sp,32
  pagetable_t pagetable;
  pagetable = (pagetable_t) kalloc();
    8000133a:	fffff097          	auipc	ra,0xfffff
    8000133e:	7ee080e7          	jalr	2030(ra) # 80000b28 <kalloc>
    80001342:	84aa                	mv	s1,a0
  if(pagetable == 0)
    80001344:	c519                	beqz	a0,80001352 <uvmcreate+0x22>
    return 0;
  memset(pagetable, 0, PGSIZE);
    80001346:	6605                	lui	a2,0x1
    80001348:	4581                	li	a1,0
    8000134a:	00000097          	auipc	ra,0x0
    8000134e:	9ca080e7          	jalr	-1590(ra) # 80000d14 <memset>
  return pagetable;
}
    80001352:	8526                	mv	a0,s1
    80001354:	60e2                	ld	ra,24(sp)
    80001356:	6442                	ld	s0,16(sp)
    80001358:	64a2                	ld	s1,8(sp)
    8000135a:	6105                	addi	sp,sp,32
    8000135c:	8082                	ret

000000008000135e <uvminit>:
// Load the user initcode into address 0 of pagetable,
// for the very first process.
// sz must be less than a page.
void
uvminit(pagetable_t pagetable, uchar *src, uint sz)
{
    8000135e:	7179                	addi	sp,sp,-48
    80001360:	f406                	sd	ra,40(sp)
    80001362:	f022                	sd	s0,32(sp)
    80001364:	ec26                	sd	s1,24(sp)
    80001366:	e84a                	sd	s2,16(sp)
    80001368:	e44e                	sd	s3,8(sp)
    8000136a:	e052                	sd	s4,0(sp)
    8000136c:	1800                	addi	s0,sp,48
  char *mem;

  if(sz >= PGSIZE)
    8000136e:	6785                	lui	a5,0x1
    80001370:	04f67863          	bgeu	a2,a5,800013c0 <uvminit+0x62>
    80001374:	8a2a                	mv	s4,a0
    80001376:	89ae                	mv	s3,a1
    80001378:	84b2                	mv	s1,a2
    panic("inituvm: more than a page");
  mem = kalloc();
    8000137a:	fffff097          	auipc	ra,0xfffff
    8000137e:	7ae080e7          	jalr	1966(ra) # 80000b28 <kalloc>
    80001382:	892a                	mv	s2,a0
  memset(mem, 0, PGSIZE);
    80001384:	6605                	lui	a2,0x1
    80001386:	4581                	li	a1,0
    80001388:	00000097          	auipc	ra,0x0
    8000138c:	98c080e7          	jalr	-1652(ra) # 80000d14 <memset>
  mappages(pagetable, 0, PGSIZE, (uint64)mem, PTE_W|PTE_R|PTE_X|PTE_U);
    80001390:	4779                	li	a4,30
    80001392:	86ca                	mv	a3,s2
    80001394:	6605                	lui	a2,0x1
    80001396:	4581                	li	a1,0
    80001398:	8552                	mv	a0,s4
    8000139a:	00000097          	auipc	ra,0x0
    8000139e:	d4e080e7          	jalr	-690(ra) # 800010e8 <mappages>
  memmove(mem, src, sz);
    800013a2:	8626                	mv	a2,s1
    800013a4:	85ce                	mv	a1,s3
    800013a6:	854a                	mv	a0,s2
    800013a8:	00000097          	auipc	ra,0x0
    800013ac:	9cc080e7          	jalr	-1588(ra) # 80000d74 <memmove>
}
    800013b0:	70a2                	ld	ra,40(sp)
    800013b2:	7402                	ld	s0,32(sp)
    800013b4:	64e2                	ld	s1,24(sp)
    800013b6:	6942                	ld	s2,16(sp)
    800013b8:	69a2                	ld	s3,8(sp)
    800013ba:	6a02                	ld	s4,0(sp)
    800013bc:	6145                	addi	sp,sp,48
    800013be:	8082                	ret
    panic("inituvm: more than a page");
    800013c0:	00007517          	auipc	a0,0x7
    800013c4:	d8050513          	addi	a0,a0,-640 # 80008140 <digits+0x100>
    800013c8:	fffff097          	auipc	ra,0xfffff
    800013cc:	188080e7          	jalr	392(ra) # 80000550 <panic>

00000000800013d0 <uvmdealloc>:
// newsz.  oldsz and newsz need not be page-aligned, nor does newsz
// need to be less than oldsz.  oldsz can be larger than the actual
// process size.  Returns the new process size.
uint64
uvmdealloc(pagetable_t pagetable, uint64 oldsz, uint64 newsz)
{
    800013d0:	1101                	addi	sp,sp,-32
    800013d2:	ec06                	sd	ra,24(sp)
    800013d4:	e822                	sd	s0,16(sp)
    800013d6:	e426                	sd	s1,8(sp)
    800013d8:	1000                	addi	s0,sp,32
  if(newsz >= oldsz)
    return oldsz;
    800013da:	84ae                	mv	s1,a1
  if(newsz >= oldsz)
    800013dc:	00b67d63          	bgeu	a2,a1,800013f6 <uvmdealloc+0x26>
    800013e0:	84b2                	mv	s1,a2

  if(PGROUNDUP(newsz) < PGROUNDUP(oldsz)){
    800013e2:	6785                	lui	a5,0x1
    800013e4:	17fd                	addi	a5,a5,-1
    800013e6:	00f60733          	add	a4,a2,a5
    800013ea:	767d                	lui	a2,0xfffff
    800013ec:	8f71                	and	a4,a4,a2
    800013ee:	97ae                	add	a5,a5,a1
    800013f0:	8ff1                	and	a5,a5,a2
    800013f2:	00f76863          	bltu	a4,a5,80001402 <uvmdealloc+0x32>
    int npages = (PGROUNDUP(oldsz) - PGROUNDUP(newsz)) / PGSIZE;
    uvmunmap(pagetable, PGROUNDUP(newsz), npages, 1);
  }

  return newsz;
}
    800013f6:	8526                	mv	a0,s1
    800013f8:	60e2                	ld	ra,24(sp)
    800013fa:	6442                	ld	s0,16(sp)
    800013fc:	64a2                	ld	s1,8(sp)
    800013fe:	6105                	addi	sp,sp,32
    80001400:	8082                	ret
    int npages = (PGROUNDUP(oldsz) - PGROUNDUP(newsz)) / PGSIZE;
    80001402:	8f99                	sub	a5,a5,a4
    80001404:	83b1                	srli	a5,a5,0xc
    uvmunmap(pagetable, PGROUNDUP(newsz), npages, 1);
    80001406:	4685                	li	a3,1
    80001408:	0007861b          	sext.w	a2,a5
    8000140c:	85ba                	mv	a1,a4
    8000140e:	00000097          	auipc	ra,0x0
    80001412:	e5e080e7          	jalr	-418(ra) # 8000126c <uvmunmap>
    80001416:	b7c5                	j	800013f6 <uvmdealloc+0x26>

0000000080001418 <uvmalloc>:
  if(newsz < oldsz)
    80001418:	0ab66163          	bltu	a2,a1,800014ba <uvmalloc+0xa2>
{
    8000141c:	7139                	addi	sp,sp,-64
    8000141e:	fc06                	sd	ra,56(sp)
    80001420:	f822                	sd	s0,48(sp)
    80001422:	f426                	sd	s1,40(sp)
    80001424:	f04a                	sd	s2,32(sp)
    80001426:	ec4e                	sd	s3,24(sp)
    80001428:	e852                	sd	s4,16(sp)
    8000142a:	e456                	sd	s5,8(sp)
    8000142c:	0080                	addi	s0,sp,64
    8000142e:	8aaa                	mv	s5,a0
    80001430:	8a32                	mv	s4,a2
  oldsz = PGROUNDUP(oldsz);
    80001432:	6985                	lui	s3,0x1
    80001434:	19fd                	addi	s3,s3,-1
    80001436:	95ce                	add	a1,a1,s3
    80001438:	79fd                	lui	s3,0xfffff
    8000143a:	0135f9b3          	and	s3,a1,s3
  for(a = oldsz; a < newsz; a += PGSIZE){
    8000143e:	08c9f063          	bgeu	s3,a2,800014be <uvmalloc+0xa6>
    80001442:	894e                	mv	s2,s3
    mem = kalloc();
    80001444:	fffff097          	auipc	ra,0xfffff
    80001448:	6e4080e7          	jalr	1764(ra) # 80000b28 <kalloc>
    8000144c:	84aa                	mv	s1,a0
    if(mem == 0){
    8000144e:	c51d                	beqz	a0,8000147c <uvmalloc+0x64>
    memset(mem, 0, PGSIZE);
    80001450:	6605                	lui	a2,0x1
    80001452:	4581                	li	a1,0
    80001454:	00000097          	auipc	ra,0x0
    80001458:	8c0080e7          	jalr	-1856(ra) # 80000d14 <memset>
    if(mappages(pagetable, a, PGSIZE, (uint64)mem, PTE_W|PTE_X|PTE_R|PTE_U) != 0){
    8000145c:	4779                	li	a4,30
    8000145e:	86a6                	mv	a3,s1
    80001460:	6605                	lui	a2,0x1
    80001462:	85ca                	mv	a1,s2
    80001464:	8556                	mv	a0,s5
    80001466:	00000097          	auipc	ra,0x0
    8000146a:	c82080e7          	jalr	-894(ra) # 800010e8 <mappages>
    8000146e:	e905                	bnez	a0,8000149e <uvmalloc+0x86>
  for(a = oldsz; a < newsz; a += PGSIZE){
    80001470:	6785                	lui	a5,0x1
    80001472:	993e                	add	s2,s2,a5
    80001474:	fd4968e3          	bltu	s2,s4,80001444 <uvmalloc+0x2c>
  return newsz;
    80001478:	8552                	mv	a0,s4
    8000147a:	a809                	j	8000148c <uvmalloc+0x74>
      uvmdealloc(pagetable, a, oldsz);
    8000147c:	864e                	mv	a2,s3
    8000147e:	85ca                	mv	a1,s2
    80001480:	8556                	mv	a0,s5
    80001482:	00000097          	auipc	ra,0x0
    80001486:	f4e080e7          	jalr	-178(ra) # 800013d0 <uvmdealloc>
      return 0;
    8000148a:	4501                	li	a0,0
}
    8000148c:	70e2                	ld	ra,56(sp)
    8000148e:	7442                	ld	s0,48(sp)
    80001490:	74a2                	ld	s1,40(sp)
    80001492:	7902                	ld	s2,32(sp)
    80001494:	69e2                	ld	s3,24(sp)
    80001496:	6a42                	ld	s4,16(sp)
    80001498:	6aa2                	ld	s5,8(sp)
    8000149a:	6121                	addi	sp,sp,64
    8000149c:	8082                	ret
      kfree(mem);
    8000149e:	8526                	mv	a0,s1
    800014a0:	fffff097          	auipc	ra,0xfffff
    800014a4:	58c080e7          	jalr	1420(ra) # 80000a2c <kfree>
      uvmdealloc(pagetable, a, oldsz);
    800014a8:	864e                	mv	a2,s3
    800014aa:	85ca                	mv	a1,s2
    800014ac:	8556                	mv	a0,s5
    800014ae:	00000097          	auipc	ra,0x0
    800014b2:	f22080e7          	jalr	-222(ra) # 800013d0 <uvmdealloc>
      return 0;
    800014b6:	4501                	li	a0,0
    800014b8:	bfd1                	j	8000148c <uvmalloc+0x74>
    return oldsz;
    800014ba:	852e                	mv	a0,a1
}
    800014bc:	8082                	ret
  return newsz;
    800014be:	8532                	mv	a0,a2
    800014c0:	b7f1                	j	8000148c <uvmalloc+0x74>

00000000800014c2 <freewalk>:

// Recursively free page-table pages.
// All leaf mappings must already have been removed.
void
freewalk(pagetable_t pagetable)
{
    800014c2:	7179                	addi	sp,sp,-48
    800014c4:	f406                	sd	ra,40(sp)
    800014c6:	f022                	sd	s0,32(sp)
    800014c8:	ec26                	sd	s1,24(sp)
    800014ca:	e84a                	sd	s2,16(sp)
    800014cc:	e44e                	sd	s3,8(sp)
    800014ce:	e052                	sd	s4,0(sp)
    800014d0:	1800                	addi	s0,sp,48
    800014d2:	8a2a                	mv	s4,a0
  // there are 2^9 = 512 PTEs in a page table.
  for(int i = 0; i < 512; i++){
    800014d4:	84aa                	mv	s1,a0
    800014d6:	6905                	lui	s2,0x1
    800014d8:	992a                	add	s2,s2,a0
    pte_t pte = pagetable[i];
    if((pte & PTE_V) && (pte & (PTE_R|PTE_W|PTE_X)) == 0){
    800014da:	4985                	li	s3,1
    800014dc:	a821                	j	800014f4 <freewalk+0x32>
      // this PTE points to a lower-level page table.
      uint64 child = PTE2PA(pte);
    800014de:	8129                	srli	a0,a0,0xa
      freewalk((pagetable_t)child);
    800014e0:	0532                	slli	a0,a0,0xc
    800014e2:	00000097          	auipc	ra,0x0
    800014e6:	fe0080e7          	jalr	-32(ra) # 800014c2 <freewalk>
      pagetable[i] = 0;
    800014ea:	0004b023          	sd	zero,0(s1)
  for(int i = 0; i < 512; i++){
    800014ee:	04a1                	addi	s1,s1,8
    800014f0:	03248163          	beq	s1,s2,80001512 <freewalk+0x50>
    pte_t pte = pagetable[i];
    800014f4:	6088                	ld	a0,0(s1)
    if((pte & PTE_V) && (pte & (PTE_R|PTE_W|PTE_X)) == 0){
    800014f6:	00f57793          	andi	a5,a0,15
    800014fa:	ff3782e3          	beq	a5,s3,800014de <freewalk+0x1c>
    } else if(pte & PTE_V){
    800014fe:	8905                	andi	a0,a0,1
    80001500:	d57d                	beqz	a0,800014ee <freewalk+0x2c>
      panic("freewalk: leaf");
    80001502:	00007517          	auipc	a0,0x7
    80001506:	c5e50513          	addi	a0,a0,-930 # 80008160 <digits+0x120>
    8000150a:	fffff097          	auipc	ra,0xfffff
    8000150e:	046080e7          	jalr	70(ra) # 80000550 <panic>
    }
  }
  kfree((void*)pagetable);
    80001512:	8552                	mv	a0,s4
    80001514:	fffff097          	auipc	ra,0xfffff
    80001518:	518080e7          	jalr	1304(ra) # 80000a2c <kfree>
}
    8000151c:	70a2                	ld	ra,40(sp)
    8000151e:	7402                	ld	s0,32(sp)
    80001520:	64e2                	ld	s1,24(sp)
    80001522:	6942                	ld	s2,16(sp)
    80001524:	69a2                	ld	s3,8(sp)
    80001526:	6a02                	ld	s4,0(sp)
    80001528:	6145                	addi	sp,sp,48
    8000152a:	8082                	ret

000000008000152c <uvmfree>:

// Free user memory pages,
// then free page-table pages.
void
uvmfree(pagetable_t pagetable, uint64 sz)
{
    8000152c:	1101                	addi	sp,sp,-32
    8000152e:	ec06                	sd	ra,24(sp)
    80001530:	e822                	sd	s0,16(sp)
    80001532:	e426                	sd	s1,8(sp)
    80001534:	1000                	addi	s0,sp,32
    80001536:	84aa                	mv	s1,a0
  if(sz > 0)
    80001538:	e999                	bnez	a1,8000154e <uvmfree+0x22>
    uvmunmap(pagetable, 0, PGROUNDUP(sz)/PGSIZE, 1);
  freewalk(pagetable);
    8000153a:	8526                	mv	a0,s1
    8000153c:	00000097          	auipc	ra,0x0
    80001540:	f86080e7          	jalr	-122(ra) # 800014c2 <freewalk>
}
    80001544:	60e2                	ld	ra,24(sp)
    80001546:	6442                	ld	s0,16(sp)
    80001548:	64a2                	ld	s1,8(sp)
    8000154a:	6105                	addi	sp,sp,32
    8000154c:	8082                	ret
    uvmunmap(pagetable, 0, PGROUNDUP(sz)/PGSIZE, 1);
    8000154e:	6605                	lui	a2,0x1
    80001550:	167d                	addi	a2,a2,-1
    80001552:	962e                	add	a2,a2,a1
    80001554:	4685                	li	a3,1
    80001556:	8231                	srli	a2,a2,0xc
    80001558:	4581                	li	a1,0
    8000155a:	00000097          	auipc	ra,0x0
    8000155e:	d12080e7          	jalr	-750(ra) # 8000126c <uvmunmap>
    80001562:	bfe1                	j	8000153a <uvmfree+0xe>

0000000080001564 <uvmcopy>:
  pte_t *pte;
  uint64 pa, i;
  uint flags;
  char *mem;

  for(i = 0; i < sz; i += PGSIZE){
    80001564:	c679                	beqz	a2,80001632 <uvmcopy+0xce>
{
    80001566:	715d                	addi	sp,sp,-80
    80001568:	e486                	sd	ra,72(sp)
    8000156a:	e0a2                	sd	s0,64(sp)
    8000156c:	fc26                	sd	s1,56(sp)
    8000156e:	f84a                	sd	s2,48(sp)
    80001570:	f44e                	sd	s3,40(sp)
    80001572:	f052                	sd	s4,32(sp)
    80001574:	ec56                	sd	s5,24(sp)
    80001576:	e85a                	sd	s6,16(sp)
    80001578:	e45e                	sd	s7,8(sp)
    8000157a:	0880                	addi	s0,sp,80
    8000157c:	8b2a                	mv	s6,a0
    8000157e:	8aae                	mv	s5,a1
    80001580:	8a32                	mv	s4,a2
  for(i = 0; i < sz; i += PGSIZE){
    80001582:	4981                	li	s3,0
    if((pte = walk(old, i, 0)) == 0)
    80001584:	4601                	li	a2,0
    80001586:	85ce                	mv	a1,s3
    80001588:	855a                	mv	a0,s6
    8000158a:	00000097          	auipc	ra,0x0
    8000158e:	a52080e7          	jalr	-1454(ra) # 80000fdc <walk>
    80001592:	c531                	beqz	a0,800015de <uvmcopy+0x7a>
      panic("uvmcopy: pte should exist");
    if((*pte & PTE_V) == 0)
    80001594:	6118                	ld	a4,0(a0)
    80001596:	00177793          	andi	a5,a4,1
    8000159a:	cbb1                	beqz	a5,800015ee <uvmcopy+0x8a>
      panic("uvmcopy: page not present");
    pa = PTE2PA(*pte);
    8000159c:	00a75593          	srli	a1,a4,0xa
    800015a0:	00c59b93          	slli	s7,a1,0xc
    flags = PTE_FLAGS(*pte);
    800015a4:	3ff77493          	andi	s1,a4,1023
    if((mem = kalloc()) == 0)
    800015a8:	fffff097          	auipc	ra,0xfffff
    800015ac:	580080e7          	jalr	1408(ra) # 80000b28 <kalloc>
    800015b0:	892a                	mv	s2,a0
    800015b2:	c939                	beqz	a0,80001608 <uvmcopy+0xa4>
      goto err;
    memmove(mem, (char*)pa, PGSIZE);
    800015b4:	6605                	lui	a2,0x1
    800015b6:	85de                	mv	a1,s7
    800015b8:	fffff097          	auipc	ra,0xfffff
    800015bc:	7bc080e7          	jalr	1980(ra) # 80000d74 <memmove>
    if(mappages(new, i, PGSIZE, (uint64)mem, flags) != 0){
    800015c0:	8726                	mv	a4,s1
    800015c2:	86ca                	mv	a3,s2
    800015c4:	6605                	lui	a2,0x1
    800015c6:	85ce                	mv	a1,s3
    800015c8:	8556                	mv	a0,s5
    800015ca:	00000097          	auipc	ra,0x0
    800015ce:	b1e080e7          	jalr	-1250(ra) # 800010e8 <mappages>
    800015d2:	e515                	bnez	a0,800015fe <uvmcopy+0x9a>
  for(i = 0; i < sz; i += PGSIZE){
    800015d4:	6785                	lui	a5,0x1
    800015d6:	99be                	add	s3,s3,a5
    800015d8:	fb49e6e3          	bltu	s3,s4,80001584 <uvmcopy+0x20>
    800015dc:	a081                	j	8000161c <uvmcopy+0xb8>
      panic("uvmcopy: pte should exist");
    800015de:	00007517          	auipc	a0,0x7
    800015e2:	b9250513          	addi	a0,a0,-1134 # 80008170 <digits+0x130>
    800015e6:	fffff097          	auipc	ra,0xfffff
    800015ea:	f6a080e7          	jalr	-150(ra) # 80000550 <panic>
      panic("uvmcopy: page not present");
    800015ee:	00007517          	auipc	a0,0x7
    800015f2:	ba250513          	addi	a0,a0,-1118 # 80008190 <digits+0x150>
    800015f6:	fffff097          	auipc	ra,0xfffff
    800015fa:	f5a080e7          	jalr	-166(ra) # 80000550 <panic>
      kfree(mem);
    800015fe:	854a                	mv	a0,s2
    80001600:	fffff097          	auipc	ra,0xfffff
    80001604:	42c080e7          	jalr	1068(ra) # 80000a2c <kfree>
    }
  }
  return 0;

 err:
  uvmunmap(new, 0, i / PGSIZE, 1);
    80001608:	4685                	li	a3,1
    8000160a:	00c9d613          	srli	a2,s3,0xc
    8000160e:	4581                	li	a1,0
    80001610:	8556                	mv	a0,s5
    80001612:	00000097          	auipc	ra,0x0
    80001616:	c5a080e7          	jalr	-934(ra) # 8000126c <uvmunmap>
  return -1;
    8000161a:	557d                	li	a0,-1
}
    8000161c:	60a6                	ld	ra,72(sp)
    8000161e:	6406                	ld	s0,64(sp)
    80001620:	74e2                	ld	s1,56(sp)
    80001622:	7942                	ld	s2,48(sp)
    80001624:	79a2                	ld	s3,40(sp)
    80001626:	7a02                	ld	s4,32(sp)
    80001628:	6ae2                	ld	s5,24(sp)
    8000162a:	6b42                	ld	s6,16(sp)
    8000162c:	6ba2                	ld	s7,8(sp)
    8000162e:	6161                	addi	sp,sp,80
    80001630:	8082                	ret
  return 0;
    80001632:	4501                	li	a0,0
}
    80001634:	8082                	ret

0000000080001636 <uvmclear>:

// mark a PTE invalid for user access.
// used by exec for the user stack guard page.
void
uvmclear(pagetable_t pagetable, uint64 va)
{
    80001636:	1141                	addi	sp,sp,-16
    80001638:	e406                	sd	ra,8(sp)
    8000163a:	e022                	sd	s0,0(sp)
    8000163c:	0800                	addi	s0,sp,16
  pte_t *pte;
  
  pte = walk(pagetable, va, 0);
    8000163e:	4601                	li	a2,0
    80001640:	00000097          	auipc	ra,0x0
    80001644:	99c080e7          	jalr	-1636(ra) # 80000fdc <walk>
  if(pte == 0)
    80001648:	c901                	beqz	a0,80001658 <uvmclear+0x22>
    panic("uvmclear");
  *pte &= ~PTE_U;
    8000164a:	611c                	ld	a5,0(a0)
    8000164c:	9bbd                	andi	a5,a5,-17
    8000164e:	e11c                	sd	a5,0(a0)
}
    80001650:	60a2                	ld	ra,8(sp)
    80001652:	6402                	ld	s0,0(sp)
    80001654:	0141                	addi	sp,sp,16
    80001656:	8082                	ret
    panic("uvmclear");
    80001658:	00007517          	auipc	a0,0x7
    8000165c:	b5850513          	addi	a0,a0,-1192 # 800081b0 <digits+0x170>
    80001660:	fffff097          	auipc	ra,0xfffff
    80001664:	ef0080e7          	jalr	-272(ra) # 80000550 <panic>

0000000080001668 <copyout>:
int
copyout(pagetable_t pagetable, uint64 dstva, char *src, uint64 len)
{
  uint64 n, va0, pa0;

  while(len > 0){
    80001668:	c6bd                	beqz	a3,800016d6 <copyout+0x6e>
{
    8000166a:	715d                	addi	sp,sp,-80
    8000166c:	e486                	sd	ra,72(sp)
    8000166e:	e0a2                	sd	s0,64(sp)
    80001670:	fc26                	sd	s1,56(sp)
    80001672:	f84a                	sd	s2,48(sp)
    80001674:	f44e                	sd	s3,40(sp)
    80001676:	f052                	sd	s4,32(sp)
    80001678:	ec56                	sd	s5,24(sp)
    8000167a:	e85a                	sd	s6,16(sp)
    8000167c:	e45e                	sd	s7,8(sp)
    8000167e:	e062                	sd	s8,0(sp)
    80001680:	0880                	addi	s0,sp,80
    80001682:	8b2a                	mv	s6,a0
    80001684:	8c2e                	mv	s8,a1
    80001686:	8a32                	mv	s4,a2
    80001688:	89b6                	mv	s3,a3
    va0 = PGROUNDDOWN(dstva);
    8000168a:	7bfd                	lui	s7,0xfffff
    pa0 = walkaddr(pagetable, va0);
    if(pa0 == 0)
      return -1;
    n = PGSIZE - (dstva - va0);
    8000168c:	6a85                	lui	s5,0x1
    8000168e:	a015                	j	800016b2 <copyout+0x4a>
    if(n > len)
      n = len;
    memmove((void *)(pa0 + (dstva - va0)), src, n);
    80001690:	9562                	add	a0,a0,s8
    80001692:	0004861b          	sext.w	a2,s1
    80001696:	85d2                	mv	a1,s4
    80001698:	41250533          	sub	a0,a0,s2
    8000169c:	fffff097          	auipc	ra,0xfffff
    800016a0:	6d8080e7          	jalr	1752(ra) # 80000d74 <memmove>

    len -= n;
    800016a4:	409989b3          	sub	s3,s3,s1
    src += n;
    800016a8:	9a26                	add	s4,s4,s1
    dstva = va0 + PGSIZE;
    800016aa:	01590c33          	add	s8,s2,s5
  while(len > 0){
    800016ae:	02098263          	beqz	s3,800016d2 <copyout+0x6a>
    va0 = PGROUNDDOWN(dstva);
    800016b2:	017c7933          	and	s2,s8,s7
    pa0 = walkaddr(pagetable, va0);
    800016b6:	85ca                	mv	a1,s2
    800016b8:	855a                	mv	a0,s6
    800016ba:	00000097          	auipc	ra,0x0
    800016be:	9ec080e7          	jalr	-1556(ra) # 800010a6 <walkaddr>
    if(pa0 == 0)
    800016c2:	cd01                	beqz	a0,800016da <copyout+0x72>
    n = PGSIZE - (dstva - va0);
    800016c4:	418904b3          	sub	s1,s2,s8
    800016c8:	94d6                	add	s1,s1,s5
    if(n > len)
    800016ca:	fc99f3e3          	bgeu	s3,s1,80001690 <copyout+0x28>
    800016ce:	84ce                	mv	s1,s3
    800016d0:	b7c1                	j	80001690 <copyout+0x28>
  }
  return 0;
    800016d2:	4501                	li	a0,0
    800016d4:	a021                	j	800016dc <copyout+0x74>
    800016d6:	4501                	li	a0,0
}
    800016d8:	8082                	ret
      return -1;
    800016da:	557d                	li	a0,-1
}
    800016dc:	60a6                	ld	ra,72(sp)
    800016de:	6406                	ld	s0,64(sp)
    800016e0:	74e2                	ld	s1,56(sp)
    800016e2:	7942                	ld	s2,48(sp)
    800016e4:	79a2                	ld	s3,40(sp)
    800016e6:	7a02                	ld	s4,32(sp)
    800016e8:	6ae2                	ld	s5,24(sp)
    800016ea:	6b42                	ld	s6,16(sp)
    800016ec:	6ba2                	ld	s7,8(sp)
    800016ee:	6c02                	ld	s8,0(sp)
    800016f0:	6161                	addi	sp,sp,80
    800016f2:	8082                	ret

00000000800016f4 <copyin>:
int
copyin(pagetable_t pagetable, char *dst, uint64 srcva, uint64 len)
{
  uint64 n, va0, pa0;

  while(len > 0){
    800016f4:	c6bd                	beqz	a3,80001762 <copyin+0x6e>
{
    800016f6:	715d                	addi	sp,sp,-80
    800016f8:	e486                	sd	ra,72(sp)
    800016fa:	e0a2                	sd	s0,64(sp)
    800016fc:	fc26                	sd	s1,56(sp)
    800016fe:	f84a                	sd	s2,48(sp)
    80001700:	f44e                	sd	s3,40(sp)
    80001702:	f052                	sd	s4,32(sp)
    80001704:	ec56                	sd	s5,24(sp)
    80001706:	e85a                	sd	s6,16(sp)
    80001708:	e45e                	sd	s7,8(sp)
    8000170a:	e062                	sd	s8,0(sp)
    8000170c:	0880                	addi	s0,sp,80
    8000170e:	8b2a                	mv	s6,a0
    80001710:	8a2e                	mv	s4,a1
    80001712:	8c32                	mv	s8,a2
    80001714:	89b6                	mv	s3,a3
    va0 = PGROUNDDOWN(srcva);
    80001716:	7bfd                	lui	s7,0xfffff
    pa0 = walkaddr(pagetable, va0);
    if(pa0 == 0)
      return -1;
    n = PGSIZE - (srcva - va0);
    80001718:	6a85                	lui	s5,0x1
    8000171a:	a015                	j	8000173e <copyin+0x4a>
    if(n > len)
      n = len;
    memmove(dst, (void *)(pa0 + (srcva - va0)), n);
    8000171c:	9562                	add	a0,a0,s8
    8000171e:	0004861b          	sext.w	a2,s1
    80001722:	412505b3          	sub	a1,a0,s2
    80001726:	8552                	mv	a0,s4
    80001728:	fffff097          	auipc	ra,0xfffff
    8000172c:	64c080e7          	jalr	1612(ra) # 80000d74 <memmove>

    len -= n;
    80001730:	409989b3          	sub	s3,s3,s1
    dst += n;
    80001734:	9a26                	add	s4,s4,s1
    srcva = va0 + PGSIZE;
    80001736:	01590c33          	add	s8,s2,s5
  while(len > 0){
    8000173a:	02098263          	beqz	s3,8000175e <copyin+0x6a>
    va0 = PGROUNDDOWN(srcva);
    8000173e:	017c7933          	and	s2,s8,s7
    pa0 = walkaddr(pagetable, va0);
    80001742:	85ca                	mv	a1,s2
    80001744:	855a                	mv	a0,s6
    80001746:	00000097          	auipc	ra,0x0
    8000174a:	960080e7          	jalr	-1696(ra) # 800010a6 <walkaddr>
    if(pa0 == 0)
    8000174e:	cd01                	beqz	a0,80001766 <copyin+0x72>
    n = PGSIZE - (srcva - va0);
    80001750:	418904b3          	sub	s1,s2,s8
    80001754:	94d6                	add	s1,s1,s5
    if(n > len)
    80001756:	fc99f3e3          	bgeu	s3,s1,8000171c <copyin+0x28>
    8000175a:	84ce                	mv	s1,s3
    8000175c:	b7c1                	j	8000171c <copyin+0x28>
  }
  return 0;
    8000175e:	4501                	li	a0,0
    80001760:	a021                	j	80001768 <copyin+0x74>
    80001762:	4501                	li	a0,0
}
    80001764:	8082                	ret
      return -1;
    80001766:	557d                	li	a0,-1
}
    80001768:	60a6                	ld	ra,72(sp)
    8000176a:	6406                	ld	s0,64(sp)
    8000176c:	74e2                	ld	s1,56(sp)
    8000176e:	7942                	ld	s2,48(sp)
    80001770:	79a2                	ld	s3,40(sp)
    80001772:	7a02                	ld	s4,32(sp)
    80001774:	6ae2                	ld	s5,24(sp)
    80001776:	6b42                	ld	s6,16(sp)
    80001778:	6ba2                	ld	s7,8(sp)
    8000177a:	6c02                	ld	s8,0(sp)
    8000177c:	6161                	addi	sp,sp,80
    8000177e:	8082                	ret

0000000080001780 <copyinstr>:
copyinstr(pagetable_t pagetable, char *dst, uint64 srcva, uint64 max)
{
  uint64 n, va0, pa0;
  int got_null = 0;

  while(got_null == 0 && max > 0){
    80001780:	c6c5                	beqz	a3,80001828 <copyinstr+0xa8>
{
    80001782:	715d                	addi	sp,sp,-80
    80001784:	e486                	sd	ra,72(sp)
    80001786:	e0a2                	sd	s0,64(sp)
    80001788:	fc26                	sd	s1,56(sp)
    8000178a:	f84a                	sd	s2,48(sp)
    8000178c:	f44e                	sd	s3,40(sp)
    8000178e:	f052                	sd	s4,32(sp)
    80001790:	ec56                	sd	s5,24(sp)
    80001792:	e85a                	sd	s6,16(sp)
    80001794:	e45e                	sd	s7,8(sp)
    80001796:	0880                	addi	s0,sp,80
    80001798:	8a2a                	mv	s4,a0
    8000179a:	8b2e                	mv	s6,a1
    8000179c:	8bb2                	mv	s7,a2
    8000179e:	84b6                	mv	s1,a3
    va0 = PGROUNDDOWN(srcva);
    800017a0:	7afd                	lui	s5,0xfffff
    pa0 = walkaddr(pagetable, va0);
    if(pa0 == 0)
      return -1;
    n = PGSIZE - (srcva - va0);
    800017a2:	6985                	lui	s3,0x1
    800017a4:	a035                	j	800017d0 <copyinstr+0x50>
      n = max;

    char *p = (char *) (pa0 + (srcva - va0));
    while(n > 0){
      if(*p == '\0'){
        *dst = '\0';
    800017a6:	00078023          	sb	zero,0(a5) # 1000 <_entry-0x7ffff000>
    800017aa:	4785                	li	a5,1
      dst++;
    }

    srcva = va0 + PGSIZE;
  }
  if(got_null){
    800017ac:	0017b793          	seqz	a5,a5
    800017b0:	40f00533          	neg	a0,a5
    return 0;
  } else {
    return -1;
  }
}
    800017b4:	60a6                	ld	ra,72(sp)
    800017b6:	6406                	ld	s0,64(sp)
    800017b8:	74e2                	ld	s1,56(sp)
    800017ba:	7942                	ld	s2,48(sp)
    800017bc:	79a2                	ld	s3,40(sp)
    800017be:	7a02                	ld	s4,32(sp)
    800017c0:	6ae2                	ld	s5,24(sp)
    800017c2:	6b42                	ld	s6,16(sp)
    800017c4:	6ba2                	ld	s7,8(sp)
    800017c6:	6161                	addi	sp,sp,80
    800017c8:	8082                	ret
    srcva = va0 + PGSIZE;
    800017ca:	01390bb3          	add	s7,s2,s3
  while(got_null == 0 && max > 0){
    800017ce:	c8a9                	beqz	s1,80001820 <copyinstr+0xa0>
    va0 = PGROUNDDOWN(srcva);
    800017d0:	015bf933          	and	s2,s7,s5
    pa0 = walkaddr(pagetable, va0);
    800017d4:	85ca                	mv	a1,s2
    800017d6:	8552                	mv	a0,s4
    800017d8:	00000097          	auipc	ra,0x0
    800017dc:	8ce080e7          	jalr	-1842(ra) # 800010a6 <walkaddr>
    if(pa0 == 0)
    800017e0:	c131                	beqz	a0,80001824 <copyinstr+0xa4>
    n = PGSIZE - (srcva - va0);
    800017e2:	41790833          	sub	a6,s2,s7
    800017e6:	984e                	add	a6,a6,s3
    if(n > max)
    800017e8:	0104f363          	bgeu	s1,a6,800017ee <copyinstr+0x6e>
    800017ec:	8826                	mv	a6,s1
    char *p = (char *) (pa0 + (srcva - va0));
    800017ee:	955e                	add	a0,a0,s7
    800017f0:	41250533          	sub	a0,a0,s2
    while(n > 0){
    800017f4:	fc080be3          	beqz	a6,800017ca <copyinstr+0x4a>
    800017f8:	985a                	add	a6,a6,s6
    800017fa:	87da                	mv	a5,s6
      if(*p == '\0'){
    800017fc:	41650633          	sub	a2,a0,s6
    80001800:	14fd                	addi	s1,s1,-1
    80001802:	9b26                	add	s6,s6,s1
    80001804:	00f60733          	add	a4,a2,a5
    80001808:	00074703          	lbu	a4,0(a4) # fffffffffffff000 <end+0xffffffff7ffd9000>
    8000180c:	df49                	beqz	a4,800017a6 <copyinstr+0x26>
        *dst = *p;
    8000180e:	00e78023          	sb	a4,0(a5)
      --max;
    80001812:	40fb04b3          	sub	s1,s6,a5
      dst++;
    80001816:	0785                	addi	a5,a5,1
    while(n > 0){
    80001818:	ff0796e3          	bne	a5,a6,80001804 <copyinstr+0x84>
      dst++;
    8000181c:	8b42                	mv	s6,a6
    8000181e:	b775                	j	800017ca <copyinstr+0x4a>
    80001820:	4781                	li	a5,0
    80001822:	b769                	j	800017ac <copyinstr+0x2c>
      return -1;
    80001824:	557d                	li	a0,-1
    80001826:	b779                	j	800017b4 <copyinstr+0x34>
  int got_null = 0;
    80001828:	4781                	li	a5,0
  if(got_null){
    8000182a:	0017b793          	seqz	a5,a5
    8000182e:	40f00533          	neg	a0,a5
}
    80001832:	8082                	ret

0000000080001834 <wakeup1>:

// Wake up p if it is sleeping in wait(); used by exit().
// Caller must hold p->lock.
static void
wakeup1(struct proc *p)
{
    80001834:	1101                	addi	sp,sp,-32
    80001836:	ec06                	sd	ra,24(sp)
    80001838:	e822                	sd	s0,16(sp)
    8000183a:	e426                	sd	s1,8(sp)
    8000183c:	1000                	addi	s0,sp,32
    8000183e:	84aa                	mv	s1,a0
  if(!holding(&p->lock))
    80001840:	fffff097          	auipc	ra,0xfffff
    80001844:	35e080e7          	jalr	862(ra) # 80000b9e <holding>
    80001848:	c909                	beqz	a0,8000185a <wakeup1+0x26>
    panic("wakeup1");
  if(p->chan == p && p->state == SLEEPING) {
    8000184a:	749c                	ld	a5,40(s1)
    8000184c:	00978f63          	beq	a5,s1,8000186a <wakeup1+0x36>
    p->state = RUNNABLE;
  }
}
    80001850:	60e2                	ld	ra,24(sp)
    80001852:	6442                	ld	s0,16(sp)
    80001854:	64a2                	ld	s1,8(sp)
    80001856:	6105                	addi	sp,sp,32
    80001858:	8082                	ret
    panic("wakeup1");
    8000185a:	00007517          	auipc	a0,0x7
    8000185e:	96650513          	addi	a0,a0,-1690 # 800081c0 <digits+0x180>
    80001862:	fffff097          	auipc	ra,0xfffff
    80001866:	cee080e7          	jalr	-786(ra) # 80000550 <panic>
  if(p->chan == p && p->state == SLEEPING) {
    8000186a:	4c98                	lw	a4,24(s1)
    8000186c:	4785                	li	a5,1
    8000186e:	fef711e3          	bne	a4,a5,80001850 <wakeup1+0x1c>
    p->state = RUNNABLE;
    80001872:	4789                	li	a5,2
    80001874:	cc9c                	sw	a5,24(s1)
}
    80001876:	bfe9                	j	80001850 <wakeup1+0x1c>

0000000080001878 <procinit>:
{
    80001878:	715d                	addi	sp,sp,-80
    8000187a:	e486                	sd	ra,72(sp)
    8000187c:	e0a2                	sd	s0,64(sp)
    8000187e:	fc26                	sd	s1,56(sp)
    80001880:	f84a                	sd	s2,48(sp)
    80001882:	f44e                	sd	s3,40(sp)
    80001884:	f052                	sd	s4,32(sp)
    80001886:	ec56                	sd	s5,24(sp)
    80001888:	e85a                	sd	s6,16(sp)
    8000188a:	e45e                	sd	s7,8(sp)
    8000188c:	0880                	addi	s0,sp,80
  initlock(&pid_lock, "nextpid");
    8000188e:	00007597          	auipc	a1,0x7
    80001892:	93a58593          	addi	a1,a1,-1734 # 800081c8 <digits+0x188>
    80001896:	00010517          	auipc	a0,0x10
    8000189a:	9fa50513          	addi	a0,a0,-1542 # 80011290 <pid_lock>
    8000189e:	fffff097          	auipc	ra,0xfffff
    800018a2:	2ea080e7          	jalr	746(ra) # 80000b88 <initlock>
  for(p = proc; p < &proc[NPROC]; p++) {
    800018a6:	00010917          	auipc	s2,0x10
    800018aa:	e0290913          	addi	s2,s2,-510 # 800116a8 <proc>
      initlock(&p->lock, "proc");
    800018ae:	00007b97          	auipc	s7,0x7
    800018b2:	922b8b93          	addi	s7,s7,-1758 # 800081d0 <digits+0x190>
      uint64 va = KSTACK((int) (p - proc));
    800018b6:	8b4a                	mv	s6,s2
    800018b8:	00006a97          	auipc	s5,0x6
    800018bc:	748a8a93          	addi	s5,s5,1864 # 80008000 <etext>
    800018c0:	040009b7          	lui	s3,0x4000
    800018c4:	19fd                	addi	s3,s3,-1
    800018c6:	09b2                	slli	s3,s3,0xc
  for(p = proc; p < &proc[NPROC]; p++) {
    800018c8:	00015a17          	auipc	s4,0x15
    800018cc:	7e0a0a13          	addi	s4,s4,2016 # 800170a8 <tickslock>
      initlock(&p->lock, "proc");
    800018d0:	85de                	mv	a1,s7
    800018d2:	854a                	mv	a0,s2
    800018d4:	fffff097          	auipc	ra,0xfffff
    800018d8:	2b4080e7          	jalr	692(ra) # 80000b88 <initlock>
      char *pa = kalloc();
    800018dc:	fffff097          	auipc	ra,0xfffff
    800018e0:	24c080e7          	jalr	588(ra) # 80000b28 <kalloc>
    800018e4:	85aa                	mv	a1,a0
      if(pa == 0)
    800018e6:	c929                	beqz	a0,80001938 <procinit+0xc0>
      uint64 va = KSTACK((int) (p - proc));
    800018e8:	416904b3          	sub	s1,s2,s6
    800018ec:	848d                	srai	s1,s1,0x3
    800018ee:	000ab783          	ld	a5,0(s5)
    800018f2:	02f484b3          	mul	s1,s1,a5
    800018f6:	2485                	addiw	s1,s1,1
    800018f8:	00d4949b          	slliw	s1,s1,0xd
    800018fc:	409984b3          	sub	s1,s3,s1
      kvmmap(va, (uint64)pa, PGSIZE, PTE_R | PTE_W);
    80001900:	4699                	li	a3,6
    80001902:	6605                	lui	a2,0x1
    80001904:	8526                	mv	a0,s1
    80001906:	00000097          	auipc	ra,0x0
    8000190a:	870080e7          	jalr	-1936(ra) # 80001176 <kvmmap>
      p->kstack = va;
    8000190e:	04993023          	sd	s1,64(s2)
  for(p = proc; p < &proc[NPROC]; p++) {
    80001912:	16890913          	addi	s2,s2,360
    80001916:	fb491de3          	bne	s2,s4,800018d0 <procinit+0x58>
  kvminithart();
    8000191a:	fffff097          	auipc	ra,0xfffff
    8000191e:	768080e7          	jalr	1896(ra) # 80001082 <kvminithart>
}
    80001922:	60a6                	ld	ra,72(sp)
    80001924:	6406                	ld	s0,64(sp)
    80001926:	74e2                	ld	s1,56(sp)
    80001928:	7942                	ld	s2,48(sp)
    8000192a:	79a2                	ld	s3,40(sp)
    8000192c:	7a02                	ld	s4,32(sp)
    8000192e:	6ae2                	ld	s5,24(sp)
    80001930:	6b42                	ld	s6,16(sp)
    80001932:	6ba2                	ld	s7,8(sp)
    80001934:	6161                	addi	sp,sp,80
    80001936:	8082                	ret
        panic("kalloc");
    80001938:	00007517          	auipc	a0,0x7
    8000193c:	8a050513          	addi	a0,a0,-1888 # 800081d8 <digits+0x198>
    80001940:	fffff097          	auipc	ra,0xfffff
    80001944:	c10080e7          	jalr	-1008(ra) # 80000550 <panic>

0000000080001948 <cpuid>:
{
    80001948:	1141                	addi	sp,sp,-16
    8000194a:	e422                	sd	s0,8(sp)
    8000194c:	0800                	addi	s0,sp,16
  asm volatile("mv %0, tp" : "=r" (x) );
    8000194e:	8512                	mv	a0,tp
}
    80001950:	2501                	sext.w	a0,a0
    80001952:	6422                	ld	s0,8(sp)
    80001954:	0141                	addi	sp,sp,16
    80001956:	8082                	ret

0000000080001958 <mycpu>:
mycpu(void) {
    80001958:	1141                	addi	sp,sp,-16
    8000195a:	e422                	sd	s0,8(sp)
    8000195c:	0800                	addi	s0,sp,16
    8000195e:	8792                	mv	a5,tp
  struct cpu *c = &cpus[id];
    80001960:	2781                	sext.w	a5,a5
    80001962:	079e                	slli	a5,a5,0x7
}
    80001964:	00010517          	auipc	a0,0x10
    80001968:	94450513          	addi	a0,a0,-1724 # 800112a8 <cpus>
    8000196c:	953e                	add	a0,a0,a5
    8000196e:	6422                	ld	s0,8(sp)
    80001970:	0141                	addi	sp,sp,16
    80001972:	8082                	ret

0000000080001974 <myproc>:
myproc(void) {
    80001974:	1101                	addi	sp,sp,-32
    80001976:	ec06                	sd	ra,24(sp)
    80001978:	e822                	sd	s0,16(sp)
    8000197a:	e426                	sd	s1,8(sp)
    8000197c:	1000                	addi	s0,sp,32
  push_off();
    8000197e:	fffff097          	auipc	ra,0xfffff
    80001982:	24e080e7          	jalr	590(ra) # 80000bcc <push_off>
    80001986:	8792                	mv	a5,tp
  struct proc *p = c->proc;
    80001988:	2781                	sext.w	a5,a5
    8000198a:	079e                	slli	a5,a5,0x7
    8000198c:	00010717          	auipc	a4,0x10
    80001990:	90470713          	addi	a4,a4,-1788 # 80011290 <pid_lock>
    80001994:	97ba                	add	a5,a5,a4
    80001996:	6f84                	ld	s1,24(a5)
  pop_off();
    80001998:	fffff097          	auipc	ra,0xfffff
    8000199c:	2d4080e7          	jalr	724(ra) # 80000c6c <pop_off>
}
    800019a0:	8526                	mv	a0,s1
    800019a2:	60e2                	ld	ra,24(sp)
    800019a4:	6442                	ld	s0,16(sp)
    800019a6:	64a2                	ld	s1,8(sp)
    800019a8:	6105                	addi	sp,sp,32
    800019aa:	8082                	ret

00000000800019ac <forkret>:
{
    800019ac:	1141                	addi	sp,sp,-16
    800019ae:	e406                	sd	ra,8(sp)
    800019b0:	e022                	sd	s0,0(sp)
    800019b2:	0800                	addi	s0,sp,16
  release(&myproc()->lock);
    800019b4:	00000097          	auipc	ra,0x0
    800019b8:	fc0080e7          	jalr	-64(ra) # 80001974 <myproc>
    800019bc:	fffff097          	auipc	ra,0xfffff
    800019c0:	310080e7          	jalr	784(ra) # 80000ccc <release>
  if (first) {
    800019c4:	00007797          	auipc	a5,0x7
    800019c8:	e3c7a783          	lw	a5,-452(a5) # 80008800 <first.1660>
    800019cc:	eb89                	bnez	a5,800019de <forkret+0x32>
  usertrapret();
    800019ce:	00001097          	auipc	ra,0x1
    800019d2:	c1c080e7          	jalr	-996(ra) # 800025ea <usertrapret>
}
    800019d6:	60a2                	ld	ra,8(sp)
    800019d8:	6402                	ld	s0,0(sp)
    800019da:	0141                	addi	sp,sp,16
    800019dc:	8082                	ret
    first = 0;
    800019de:	00007797          	auipc	a5,0x7
    800019e2:	e207a123          	sw	zero,-478(a5) # 80008800 <first.1660>
    fsinit(ROOTDEV);
    800019e6:	4505                	li	a0,1
    800019e8:	00002097          	auipc	ra,0x2
    800019ec:	944080e7          	jalr	-1724(ra) # 8000332c <fsinit>
    800019f0:	bff9                	j	800019ce <forkret+0x22>

00000000800019f2 <allocpid>:
allocpid() {
    800019f2:	1101                	addi	sp,sp,-32
    800019f4:	ec06                	sd	ra,24(sp)
    800019f6:	e822                	sd	s0,16(sp)
    800019f8:	e426                	sd	s1,8(sp)
    800019fa:	e04a                	sd	s2,0(sp)
    800019fc:	1000                	addi	s0,sp,32
  acquire(&pid_lock);
    800019fe:	00010917          	auipc	s2,0x10
    80001a02:	89290913          	addi	s2,s2,-1902 # 80011290 <pid_lock>
    80001a06:	854a                	mv	a0,s2
    80001a08:	fffff097          	auipc	ra,0xfffff
    80001a0c:	210080e7          	jalr	528(ra) # 80000c18 <acquire>
  pid = nextpid;
    80001a10:	00007797          	auipc	a5,0x7
    80001a14:	df478793          	addi	a5,a5,-524 # 80008804 <nextpid>
    80001a18:	4384                	lw	s1,0(a5)
  nextpid = nextpid + 1;
    80001a1a:	0014871b          	addiw	a4,s1,1
    80001a1e:	c398                	sw	a4,0(a5)
  release(&pid_lock);
    80001a20:	854a                	mv	a0,s2
    80001a22:	fffff097          	auipc	ra,0xfffff
    80001a26:	2aa080e7          	jalr	682(ra) # 80000ccc <release>
}
    80001a2a:	8526                	mv	a0,s1
    80001a2c:	60e2                	ld	ra,24(sp)
    80001a2e:	6442                	ld	s0,16(sp)
    80001a30:	64a2                	ld	s1,8(sp)
    80001a32:	6902                	ld	s2,0(sp)
    80001a34:	6105                	addi	sp,sp,32
    80001a36:	8082                	ret

0000000080001a38 <proc_pagetable>:
{
    80001a38:	1101                	addi	sp,sp,-32
    80001a3a:	ec06                	sd	ra,24(sp)
    80001a3c:	e822                	sd	s0,16(sp)
    80001a3e:	e426                	sd	s1,8(sp)
    80001a40:	e04a                	sd	s2,0(sp)
    80001a42:	1000                	addi	s0,sp,32
    80001a44:	892a                	mv	s2,a0
  pagetable = uvmcreate();
    80001a46:	00000097          	auipc	ra,0x0
    80001a4a:	8ea080e7          	jalr	-1814(ra) # 80001330 <uvmcreate>
    80001a4e:	84aa                	mv	s1,a0
  if(pagetable == 0)
    80001a50:	c121                	beqz	a0,80001a90 <proc_pagetable+0x58>
  if(mappages(pagetable, TRAMPOLINE, PGSIZE,
    80001a52:	4729                	li	a4,10
    80001a54:	00005697          	auipc	a3,0x5
    80001a58:	5ac68693          	addi	a3,a3,1452 # 80007000 <_trampoline>
    80001a5c:	6605                	lui	a2,0x1
    80001a5e:	040005b7          	lui	a1,0x4000
    80001a62:	15fd                	addi	a1,a1,-1
    80001a64:	05b2                	slli	a1,a1,0xc
    80001a66:	fffff097          	auipc	ra,0xfffff
    80001a6a:	682080e7          	jalr	1666(ra) # 800010e8 <mappages>
    80001a6e:	02054863          	bltz	a0,80001a9e <proc_pagetable+0x66>
  if(mappages(pagetable, TRAPFRAME, PGSIZE,
    80001a72:	4719                	li	a4,6
    80001a74:	05893683          	ld	a3,88(s2)
    80001a78:	6605                	lui	a2,0x1
    80001a7a:	020005b7          	lui	a1,0x2000
    80001a7e:	15fd                	addi	a1,a1,-1
    80001a80:	05b6                	slli	a1,a1,0xd
    80001a82:	8526                	mv	a0,s1
    80001a84:	fffff097          	auipc	ra,0xfffff
    80001a88:	664080e7          	jalr	1636(ra) # 800010e8 <mappages>
    80001a8c:	02054163          	bltz	a0,80001aae <proc_pagetable+0x76>
}
    80001a90:	8526                	mv	a0,s1
    80001a92:	60e2                	ld	ra,24(sp)
    80001a94:	6442                	ld	s0,16(sp)
    80001a96:	64a2                	ld	s1,8(sp)
    80001a98:	6902                	ld	s2,0(sp)
    80001a9a:	6105                	addi	sp,sp,32
    80001a9c:	8082                	ret
    uvmfree(pagetable, 0);
    80001a9e:	4581                	li	a1,0
    80001aa0:	8526                	mv	a0,s1
    80001aa2:	00000097          	auipc	ra,0x0
    80001aa6:	a8a080e7          	jalr	-1398(ra) # 8000152c <uvmfree>
    return 0;
    80001aaa:	4481                	li	s1,0
    80001aac:	b7d5                	j	80001a90 <proc_pagetable+0x58>
    uvmunmap(pagetable, TRAMPOLINE, 1, 0);
    80001aae:	4681                	li	a3,0
    80001ab0:	4605                	li	a2,1
    80001ab2:	040005b7          	lui	a1,0x4000
    80001ab6:	15fd                	addi	a1,a1,-1
    80001ab8:	05b2                	slli	a1,a1,0xc
    80001aba:	8526                	mv	a0,s1
    80001abc:	fffff097          	auipc	ra,0xfffff
    80001ac0:	7b0080e7          	jalr	1968(ra) # 8000126c <uvmunmap>
    uvmfree(pagetable, 0);
    80001ac4:	4581                	li	a1,0
    80001ac6:	8526                	mv	a0,s1
    80001ac8:	00000097          	auipc	ra,0x0
    80001acc:	a64080e7          	jalr	-1436(ra) # 8000152c <uvmfree>
    return 0;
    80001ad0:	4481                	li	s1,0
    80001ad2:	bf7d                	j	80001a90 <proc_pagetable+0x58>

0000000080001ad4 <proc_freepagetable>:
{
    80001ad4:	1101                	addi	sp,sp,-32
    80001ad6:	ec06                	sd	ra,24(sp)
    80001ad8:	e822                	sd	s0,16(sp)
    80001ada:	e426                	sd	s1,8(sp)
    80001adc:	e04a                	sd	s2,0(sp)
    80001ade:	1000                	addi	s0,sp,32
    80001ae0:	84aa                	mv	s1,a0
    80001ae2:	892e                	mv	s2,a1
  uvmunmap(pagetable, TRAMPOLINE, 1, 0);
    80001ae4:	4681                	li	a3,0
    80001ae6:	4605                	li	a2,1
    80001ae8:	040005b7          	lui	a1,0x4000
    80001aec:	15fd                	addi	a1,a1,-1
    80001aee:	05b2                	slli	a1,a1,0xc
    80001af0:	fffff097          	auipc	ra,0xfffff
    80001af4:	77c080e7          	jalr	1916(ra) # 8000126c <uvmunmap>
  uvmunmap(pagetable, TRAPFRAME, 1, 0);
    80001af8:	4681                	li	a3,0
    80001afa:	4605                	li	a2,1
    80001afc:	020005b7          	lui	a1,0x2000
    80001b00:	15fd                	addi	a1,a1,-1
    80001b02:	05b6                	slli	a1,a1,0xd
    80001b04:	8526                	mv	a0,s1
    80001b06:	fffff097          	auipc	ra,0xfffff
    80001b0a:	766080e7          	jalr	1894(ra) # 8000126c <uvmunmap>
  uvmfree(pagetable, sz);
    80001b0e:	85ca                	mv	a1,s2
    80001b10:	8526                	mv	a0,s1
    80001b12:	00000097          	auipc	ra,0x0
    80001b16:	a1a080e7          	jalr	-1510(ra) # 8000152c <uvmfree>
}
    80001b1a:	60e2                	ld	ra,24(sp)
    80001b1c:	6442                	ld	s0,16(sp)
    80001b1e:	64a2                	ld	s1,8(sp)
    80001b20:	6902                	ld	s2,0(sp)
    80001b22:	6105                	addi	sp,sp,32
    80001b24:	8082                	ret

0000000080001b26 <freeproc>:
{
    80001b26:	1101                	addi	sp,sp,-32
    80001b28:	ec06                	sd	ra,24(sp)
    80001b2a:	e822                	sd	s0,16(sp)
    80001b2c:	e426                	sd	s1,8(sp)
    80001b2e:	1000                	addi	s0,sp,32
    80001b30:	84aa                	mv	s1,a0
  if(p->trapframe)
    80001b32:	6d28                	ld	a0,88(a0)
    80001b34:	c509                	beqz	a0,80001b3e <freeproc+0x18>
    kfree((void*)p->trapframe);
    80001b36:	fffff097          	auipc	ra,0xfffff
    80001b3a:	ef6080e7          	jalr	-266(ra) # 80000a2c <kfree>
  p->trapframe = 0;
    80001b3e:	0404bc23          	sd	zero,88(s1)
  if(p->pagetable)
    80001b42:	68a8                	ld	a0,80(s1)
    80001b44:	c511                	beqz	a0,80001b50 <freeproc+0x2a>
    proc_freepagetable(p->pagetable, p->sz);
    80001b46:	64ac                	ld	a1,72(s1)
    80001b48:	00000097          	auipc	ra,0x0
    80001b4c:	f8c080e7          	jalr	-116(ra) # 80001ad4 <proc_freepagetable>
  p->pagetable = 0;
    80001b50:	0404b823          	sd	zero,80(s1)
  p->sz = 0;
    80001b54:	0404b423          	sd	zero,72(s1)
  p->pid = 0;
    80001b58:	0204ac23          	sw	zero,56(s1)
  p->parent = 0;
    80001b5c:	0204b023          	sd	zero,32(s1)
  p->name[0] = 0;
    80001b60:	14048c23          	sb	zero,344(s1)
  p->chan = 0;
    80001b64:	0204b423          	sd	zero,40(s1)
  p->killed = 0;
    80001b68:	0204a823          	sw	zero,48(s1)
  p->xstate = 0;
    80001b6c:	0204aa23          	sw	zero,52(s1)
  p->state = UNUSED;
    80001b70:	0004ac23          	sw	zero,24(s1)
}
    80001b74:	60e2                	ld	ra,24(sp)
    80001b76:	6442                	ld	s0,16(sp)
    80001b78:	64a2                	ld	s1,8(sp)
    80001b7a:	6105                	addi	sp,sp,32
    80001b7c:	8082                	ret

0000000080001b7e <allocproc>:
{
    80001b7e:	1101                	addi	sp,sp,-32
    80001b80:	ec06                	sd	ra,24(sp)
    80001b82:	e822                	sd	s0,16(sp)
    80001b84:	e426                	sd	s1,8(sp)
    80001b86:	e04a                	sd	s2,0(sp)
    80001b88:	1000                	addi	s0,sp,32
  for(p = proc; p < &proc[NPROC]; p++) {
    80001b8a:	00010497          	auipc	s1,0x10
    80001b8e:	b1e48493          	addi	s1,s1,-1250 # 800116a8 <proc>
    80001b92:	00015917          	auipc	s2,0x15
    80001b96:	51690913          	addi	s2,s2,1302 # 800170a8 <tickslock>
    acquire(&p->lock);
    80001b9a:	8526                	mv	a0,s1
    80001b9c:	fffff097          	auipc	ra,0xfffff
    80001ba0:	07c080e7          	jalr	124(ra) # 80000c18 <acquire>
    if(p->state == UNUSED) {
    80001ba4:	4c9c                	lw	a5,24(s1)
    80001ba6:	cf81                	beqz	a5,80001bbe <allocproc+0x40>
      release(&p->lock);
    80001ba8:	8526                	mv	a0,s1
    80001baa:	fffff097          	auipc	ra,0xfffff
    80001bae:	122080e7          	jalr	290(ra) # 80000ccc <release>
  for(p = proc; p < &proc[NPROC]; p++) {
    80001bb2:	16848493          	addi	s1,s1,360
    80001bb6:	ff2492e3          	bne	s1,s2,80001b9a <allocproc+0x1c>
  return 0;
    80001bba:	4481                	li	s1,0
    80001bbc:	a0b9                	j	80001c0a <allocproc+0x8c>
  p->pid = allocpid();
    80001bbe:	00000097          	auipc	ra,0x0
    80001bc2:	e34080e7          	jalr	-460(ra) # 800019f2 <allocpid>
    80001bc6:	dc88                	sw	a0,56(s1)
  if((p->trapframe = (struct trapframe *)kalloc()) == 0){
    80001bc8:	fffff097          	auipc	ra,0xfffff
    80001bcc:	f60080e7          	jalr	-160(ra) # 80000b28 <kalloc>
    80001bd0:	892a                	mv	s2,a0
    80001bd2:	eca8                	sd	a0,88(s1)
    80001bd4:	c131                	beqz	a0,80001c18 <allocproc+0x9a>
  p->pagetable = proc_pagetable(p);
    80001bd6:	8526                	mv	a0,s1
    80001bd8:	00000097          	auipc	ra,0x0
    80001bdc:	e60080e7          	jalr	-416(ra) # 80001a38 <proc_pagetable>
    80001be0:	892a                	mv	s2,a0
    80001be2:	e8a8                	sd	a0,80(s1)
  if(p->pagetable == 0){
    80001be4:	c129                	beqz	a0,80001c26 <allocproc+0xa8>
  memset(&p->context, 0, sizeof(p->context));
    80001be6:	07000613          	li	a2,112
    80001bea:	4581                	li	a1,0
    80001bec:	06048513          	addi	a0,s1,96
    80001bf0:	fffff097          	auipc	ra,0xfffff
    80001bf4:	124080e7          	jalr	292(ra) # 80000d14 <memset>
  p->context.ra = (uint64)forkret;
    80001bf8:	00000797          	auipc	a5,0x0
    80001bfc:	db478793          	addi	a5,a5,-588 # 800019ac <forkret>
    80001c00:	f0bc                	sd	a5,96(s1)
  p->context.sp = p->kstack + PGSIZE;
    80001c02:	60bc                	ld	a5,64(s1)
    80001c04:	6705                	lui	a4,0x1
    80001c06:	97ba                	add	a5,a5,a4
    80001c08:	f4bc                	sd	a5,104(s1)
}
    80001c0a:	8526                	mv	a0,s1
    80001c0c:	60e2                	ld	ra,24(sp)
    80001c0e:	6442                	ld	s0,16(sp)
    80001c10:	64a2                	ld	s1,8(sp)
    80001c12:	6902                	ld	s2,0(sp)
    80001c14:	6105                	addi	sp,sp,32
    80001c16:	8082                	ret
    release(&p->lock);
    80001c18:	8526                	mv	a0,s1
    80001c1a:	fffff097          	auipc	ra,0xfffff
    80001c1e:	0b2080e7          	jalr	178(ra) # 80000ccc <release>
    return 0;
    80001c22:	84ca                	mv	s1,s2
    80001c24:	b7dd                	j	80001c0a <allocproc+0x8c>
    freeproc(p);
    80001c26:	8526                	mv	a0,s1
    80001c28:	00000097          	auipc	ra,0x0
    80001c2c:	efe080e7          	jalr	-258(ra) # 80001b26 <freeproc>
    release(&p->lock);
    80001c30:	8526                	mv	a0,s1
    80001c32:	fffff097          	auipc	ra,0xfffff
    80001c36:	09a080e7          	jalr	154(ra) # 80000ccc <release>
    return 0;
    80001c3a:	84ca                	mv	s1,s2
    80001c3c:	b7f9                	j	80001c0a <allocproc+0x8c>

0000000080001c3e <userinit>:
{
    80001c3e:	1101                	addi	sp,sp,-32
    80001c40:	ec06                	sd	ra,24(sp)
    80001c42:	e822                	sd	s0,16(sp)
    80001c44:	e426                	sd	s1,8(sp)
    80001c46:	1000                	addi	s0,sp,32
  p = allocproc();
    80001c48:	00000097          	auipc	ra,0x0
    80001c4c:	f36080e7          	jalr	-202(ra) # 80001b7e <allocproc>
    80001c50:	84aa                	mv	s1,a0
  initproc = p;
    80001c52:	00007797          	auipc	a5,0x7
    80001c56:	3ca7b323          	sd	a0,966(a5) # 80009018 <initproc>
  uvminit(p->pagetable, initcode, sizeof(initcode));
    80001c5a:	03400613          	li	a2,52
    80001c5e:	00007597          	auipc	a1,0x7
    80001c62:	bb258593          	addi	a1,a1,-1102 # 80008810 <initcode>
    80001c66:	6928                	ld	a0,80(a0)
    80001c68:	fffff097          	auipc	ra,0xfffff
    80001c6c:	6f6080e7          	jalr	1782(ra) # 8000135e <uvminit>
  p->sz = PGSIZE;
    80001c70:	6785                	lui	a5,0x1
    80001c72:	e4bc                	sd	a5,72(s1)
  p->trapframe->epc = 0;      // user program counter
    80001c74:	6cb8                	ld	a4,88(s1)
    80001c76:	00073c23          	sd	zero,24(a4) # 1018 <_entry-0x7fffefe8>
  p->trapframe->sp = PGSIZE;  // user stack pointer
    80001c7a:	6cb8                	ld	a4,88(s1)
    80001c7c:	fb1c                	sd	a5,48(a4)
  safestrcpy(p->name, "initcode", sizeof(p->name));
    80001c7e:	4641                	li	a2,16
    80001c80:	00006597          	auipc	a1,0x6
    80001c84:	56058593          	addi	a1,a1,1376 # 800081e0 <digits+0x1a0>
    80001c88:	15848513          	addi	a0,s1,344
    80001c8c:	fffff097          	auipc	ra,0xfffff
    80001c90:	1de080e7          	jalr	478(ra) # 80000e6a <safestrcpy>
  p->cwd = namei("/");
    80001c94:	00006517          	auipc	a0,0x6
    80001c98:	55c50513          	addi	a0,a0,1372 # 800081f0 <digits+0x1b0>
    80001c9c:	00002097          	auipc	ra,0x2
    80001ca0:	0bc080e7          	jalr	188(ra) # 80003d58 <namei>
    80001ca4:	14a4b823          	sd	a0,336(s1)
  p->state = RUNNABLE;
    80001ca8:	4789                	li	a5,2
    80001caa:	cc9c                	sw	a5,24(s1)
  release(&p->lock);
    80001cac:	8526                	mv	a0,s1
    80001cae:	fffff097          	auipc	ra,0xfffff
    80001cb2:	01e080e7          	jalr	30(ra) # 80000ccc <release>
}
    80001cb6:	60e2                	ld	ra,24(sp)
    80001cb8:	6442                	ld	s0,16(sp)
    80001cba:	64a2                	ld	s1,8(sp)
    80001cbc:	6105                	addi	sp,sp,32
    80001cbe:	8082                	ret

0000000080001cc0 <growproc>:
{
    80001cc0:	1101                	addi	sp,sp,-32
    80001cc2:	ec06                	sd	ra,24(sp)
    80001cc4:	e822                	sd	s0,16(sp)
    80001cc6:	e426                	sd	s1,8(sp)
    80001cc8:	e04a                	sd	s2,0(sp)
    80001cca:	1000                	addi	s0,sp,32
    80001ccc:	84aa                	mv	s1,a0
  struct proc *p = myproc();
    80001cce:	00000097          	auipc	ra,0x0
    80001cd2:	ca6080e7          	jalr	-858(ra) # 80001974 <myproc>
    80001cd6:	892a                	mv	s2,a0
  sz = p->sz;
    80001cd8:	652c                	ld	a1,72(a0)
    80001cda:	0005861b          	sext.w	a2,a1
  if(n > 0){
    80001cde:	00904f63          	bgtz	s1,80001cfc <growproc+0x3c>
  } else if(n < 0){
    80001ce2:	0204cc63          	bltz	s1,80001d1a <growproc+0x5a>
  p->sz = sz;
    80001ce6:	1602                	slli	a2,a2,0x20
    80001ce8:	9201                	srli	a2,a2,0x20
    80001cea:	04c93423          	sd	a2,72(s2)
  return 0;
    80001cee:	4501                	li	a0,0
}
    80001cf0:	60e2                	ld	ra,24(sp)
    80001cf2:	6442                	ld	s0,16(sp)
    80001cf4:	64a2                	ld	s1,8(sp)
    80001cf6:	6902                	ld	s2,0(sp)
    80001cf8:	6105                	addi	sp,sp,32
    80001cfa:	8082                	ret
    if((sz = uvmalloc(p->pagetable, sz, sz + n)) == 0) {
    80001cfc:	9e25                	addw	a2,a2,s1
    80001cfe:	1602                	slli	a2,a2,0x20
    80001d00:	9201                	srli	a2,a2,0x20
    80001d02:	1582                	slli	a1,a1,0x20
    80001d04:	9181                	srli	a1,a1,0x20
    80001d06:	6928                	ld	a0,80(a0)
    80001d08:	fffff097          	auipc	ra,0xfffff
    80001d0c:	710080e7          	jalr	1808(ra) # 80001418 <uvmalloc>
    80001d10:	0005061b          	sext.w	a2,a0
    80001d14:	fa69                	bnez	a2,80001ce6 <growproc+0x26>
      return -1;
    80001d16:	557d                	li	a0,-1
    80001d18:	bfe1                	j	80001cf0 <growproc+0x30>
    sz = uvmdealloc(p->pagetable, sz, sz + n);
    80001d1a:	9e25                	addw	a2,a2,s1
    80001d1c:	1602                	slli	a2,a2,0x20
    80001d1e:	9201                	srli	a2,a2,0x20
    80001d20:	1582                	slli	a1,a1,0x20
    80001d22:	9181                	srli	a1,a1,0x20
    80001d24:	6928                	ld	a0,80(a0)
    80001d26:	fffff097          	auipc	ra,0xfffff
    80001d2a:	6aa080e7          	jalr	1706(ra) # 800013d0 <uvmdealloc>
    80001d2e:	0005061b          	sext.w	a2,a0
    80001d32:	bf55                	j	80001ce6 <growproc+0x26>

0000000080001d34 <fork>:
{
    80001d34:	7179                	addi	sp,sp,-48
    80001d36:	f406                	sd	ra,40(sp)
    80001d38:	f022                	sd	s0,32(sp)
    80001d3a:	ec26                	sd	s1,24(sp)
    80001d3c:	e84a                	sd	s2,16(sp)
    80001d3e:	e44e                	sd	s3,8(sp)
    80001d40:	e052                	sd	s4,0(sp)
    80001d42:	1800                	addi	s0,sp,48
  struct proc *p = myproc();
    80001d44:	00000097          	auipc	ra,0x0
    80001d48:	c30080e7          	jalr	-976(ra) # 80001974 <myproc>
    80001d4c:	892a                	mv	s2,a0
  if((np = allocproc()) == 0){
    80001d4e:	00000097          	auipc	ra,0x0
    80001d52:	e30080e7          	jalr	-464(ra) # 80001b7e <allocproc>
    80001d56:	c175                	beqz	a0,80001e3a <fork+0x106>
    80001d58:	89aa                	mv	s3,a0
  if(uvmcopy(p->pagetable, np->pagetable, p->sz) < 0){
    80001d5a:	04893603          	ld	a2,72(s2)
    80001d5e:	692c                	ld	a1,80(a0)
    80001d60:	05093503          	ld	a0,80(s2)
    80001d64:	00000097          	auipc	ra,0x0
    80001d68:	800080e7          	jalr	-2048(ra) # 80001564 <uvmcopy>
    80001d6c:	04054863          	bltz	a0,80001dbc <fork+0x88>
  np->sz = p->sz;
    80001d70:	04893783          	ld	a5,72(s2)
    80001d74:	04f9b423          	sd	a5,72(s3) # 4000048 <_entry-0x7bffffb8>
  np->parent = p;
    80001d78:	0329b023          	sd	s2,32(s3)
  *(np->trapframe) = *(p->trapframe);
    80001d7c:	05893683          	ld	a3,88(s2)
    80001d80:	87b6                	mv	a5,a3
    80001d82:	0589b703          	ld	a4,88(s3)
    80001d86:	12068693          	addi	a3,a3,288
    80001d8a:	0007b803          	ld	a6,0(a5) # 1000 <_entry-0x7ffff000>
    80001d8e:	6788                	ld	a0,8(a5)
    80001d90:	6b8c                	ld	a1,16(a5)
    80001d92:	6f90                	ld	a2,24(a5)
    80001d94:	01073023          	sd	a6,0(a4)
    80001d98:	e708                	sd	a0,8(a4)
    80001d9a:	eb0c                	sd	a1,16(a4)
    80001d9c:	ef10                	sd	a2,24(a4)
    80001d9e:	02078793          	addi	a5,a5,32
    80001da2:	02070713          	addi	a4,a4,32
    80001da6:	fed792e3          	bne	a5,a3,80001d8a <fork+0x56>
  np->trapframe->a0 = 0;
    80001daa:	0589b783          	ld	a5,88(s3)
    80001dae:	0607b823          	sd	zero,112(a5)
    80001db2:	0d000493          	li	s1,208
  for(i = 0; i < NOFILE; i++)
    80001db6:	15000a13          	li	s4,336
    80001dba:	a03d                	j	80001de8 <fork+0xb4>
    freeproc(np);
    80001dbc:	854e                	mv	a0,s3
    80001dbe:	00000097          	auipc	ra,0x0
    80001dc2:	d68080e7          	jalr	-664(ra) # 80001b26 <freeproc>
    release(&np->lock);
    80001dc6:	854e                	mv	a0,s3
    80001dc8:	fffff097          	auipc	ra,0xfffff
    80001dcc:	f04080e7          	jalr	-252(ra) # 80000ccc <release>
    return -1;
    80001dd0:	54fd                	li	s1,-1
    80001dd2:	a899                	j	80001e28 <fork+0xf4>
      np->ofile[i] = filedup(p->ofile[i]);
    80001dd4:	00002097          	auipc	ra,0x2
    80001dd8:	622080e7          	jalr	1570(ra) # 800043f6 <filedup>
    80001ddc:	009987b3          	add	a5,s3,s1
    80001de0:	e388                	sd	a0,0(a5)
  for(i = 0; i < NOFILE; i++)
    80001de2:	04a1                	addi	s1,s1,8
    80001de4:	01448763          	beq	s1,s4,80001df2 <fork+0xbe>
    if(p->ofile[i])
    80001de8:	009907b3          	add	a5,s2,s1
    80001dec:	6388                	ld	a0,0(a5)
    80001dee:	f17d                	bnez	a0,80001dd4 <fork+0xa0>
    80001df0:	bfcd                	j	80001de2 <fork+0xae>
  np->cwd = idup(p->cwd);
    80001df2:	15093503          	ld	a0,336(s2)
    80001df6:	00001097          	auipc	ra,0x1
    80001dfa:	770080e7          	jalr	1904(ra) # 80003566 <idup>
    80001dfe:	14a9b823          	sd	a0,336(s3)
  safestrcpy(np->name, p->name, sizeof(p->name));
    80001e02:	4641                	li	a2,16
    80001e04:	15890593          	addi	a1,s2,344
    80001e08:	15898513          	addi	a0,s3,344
    80001e0c:	fffff097          	auipc	ra,0xfffff
    80001e10:	05e080e7          	jalr	94(ra) # 80000e6a <safestrcpy>
  pid = np->pid;
    80001e14:	0389a483          	lw	s1,56(s3)
  np->state = RUNNABLE;
    80001e18:	4789                	li	a5,2
    80001e1a:	00f9ac23          	sw	a5,24(s3)
  release(&np->lock);
    80001e1e:	854e                	mv	a0,s3
    80001e20:	fffff097          	auipc	ra,0xfffff
    80001e24:	eac080e7          	jalr	-340(ra) # 80000ccc <release>
}
    80001e28:	8526                	mv	a0,s1
    80001e2a:	70a2                	ld	ra,40(sp)
    80001e2c:	7402                	ld	s0,32(sp)
    80001e2e:	64e2                	ld	s1,24(sp)
    80001e30:	6942                	ld	s2,16(sp)
    80001e32:	69a2                	ld	s3,8(sp)
    80001e34:	6a02                	ld	s4,0(sp)
    80001e36:	6145                	addi	sp,sp,48
    80001e38:	8082                	ret
    return -1;
    80001e3a:	54fd                	li	s1,-1
    80001e3c:	b7f5                	j	80001e28 <fork+0xf4>

0000000080001e3e <reparent>:
{
    80001e3e:	7179                	addi	sp,sp,-48
    80001e40:	f406                	sd	ra,40(sp)
    80001e42:	f022                	sd	s0,32(sp)
    80001e44:	ec26                	sd	s1,24(sp)
    80001e46:	e84a                	sd	s2,16(sp)
    80001e48:	e44e                	sd	s3,8(sp)
    80001e4a:	e052                	sd	s4,0(sp)
    80001e4c:	1800                	addi	s0,sp,48
    80001e4e:	892a                	mv	s2,a0
  for(pp = proc; pp < &proc[NPROC]; pp++){
    80001e50:	00010497          	auipc	s1,0x10
    80001e54:	85848493          	addi	s1,s1,-1960 # 800116a8 <proc>
      pp->parent = initproc;
    80001e58:	00007a17          	auipc	s4,0x7
    80001e5c:	1c0a0a13          	addi	s4,s4,448 # 80009018 <initproc>
  for(pp = proc; pp < &proc[NPROC]; pp++){
    80001e60:	00015997          	auipc	s3,0x15
    80001e64:	24898993          	addi	s3,s3,584 # 800170a8 <tickslock>
    80001e68:	a029                	j	80001e72 <reparent+0x34>
    80001e6a:	16848493          	addi	s1,s1,360
    80001e6e:	03348363          	beq	s1,s3,80001e94 <reparent+0x56>
    if(pp->parent == p){
    80001e72:	709c                	ld	a5,32(s1)
    80001e74:	ff279be3          	bne	a5,s2,80001e6a <reparent+0x2c>
      acquire(&pp->lock);
    80001e78:	8526                	mv	a0,s1
    80001e7a:	fffff097          	auipc	ra,0xfffff
    80001e7e:	d9e080e7          	jalr	-610(ra) # 80000c18 <acquire>
      pp->parent = initproc;
    80001e82:	000a3783          	ld	a5,0(s4)
    80001e86:	f09c                	sd	a5,32(s1)
      release(&pp->lock);
    80001e88:	8526                	mv	a0,s1
    80001e8a:	fffff097          	auipc	ra,0xfffff
    80001e8e:	e42080e7          	jalr	-446(ra) # 80000ccc <release>
    80001e92:	bfe1                	j	80001e6a <reparent+0x2c>
}
    80001e94:	70a2                	ld	ra,40(sp)
    80001e96:	7402                	ld	s0,32(sp)
    80001e98:	64e2                	ld	s1,24(sp)
    80001e9a:	6942                	ld	s2,16(sp)
    80001e9c:	69a2                	ld	s3,8(sp)
    80001e9e:	6a02                	ld	s4,0(sp)
    80001ea0:	6145                	addi	sp,sp,48
    80001ea2:	8082                	ret

0000000080001ea4 <scheduler>:
{
    80001ea4:	711d                	addi	sp,sp,-96
    80001ea6:	ec86                	sd	ra,88(sp)
    80001ea8:	e8a2                	sd	s0,80(sp)
    80001eaa:	e4a6                	sd	s1,72(sp)
    80001eac:	e0ca                	sd	s2,64(sp)
    80001eae:	fc4e                	sd	s3,56(sp)
    80001eb0:	f852                	sd	s4,48(sp)
    80001eb2:	f456                	sd	s5,40(sp)
    80001eb4:	f05a                	sd	s6,32(sp)
    80001eb6:	ec5e                	sd	s7,24(sp)
    80001eb8:	e862                	sd	s8,16(sp)
    80001eba:	e466                	sd	s9,8(sp)
    80001ebc:	1080                	addi	s0,sp,96
    80001ebe:	8792                	mv	a5,tp
  int id = r_tp();
    80001ec0:	2781                	sext.w	a5,a5
  c->proc = 0;
    80001ec2:	00779c13          	slli	s8,a5,0x7
    80001ec6:	0000f717          	auipc	a4,0xf
    80001eca:	3ca70713          	addi	a4,a4,970 # 80011290 <pid_lock>
    80001ece:	9762                	add	a4,a4,s8
    80001ed0:	00073c23          	sd	zero,24(a4)
        swtch(&c->context, &p->context);
    80001ed4:	0000f717          	auipc	a4,0xf
    80001ed8:	3dc70713          	addi	a4,a4,988 # 800112b0 <cpus+0x8>
    80001edc:	9c3a                	add	s8,s8,a4
      if(p->state == RUNNABLE) {
    80001ede:	4a89                	li	s5,2
        c->proc = p;
    80001ee0:	079e                	slli	a5,a5,0x7
    80001ee2:	0000fb17          	auipc	s6,0xf
    80001ee6:	3aeb0b13          	addi	s6,s6,942 # 80011290 <pid_lock>
    80001eea:	9b3e                	add	s6,s6,a5
    for(p = proc; p < &proc[NPROC]; p++) {
    80001eec:	00015a17          	auipc	s4,0x15
    80001ef0:	1bca0a13          	addi	s4,s4,444 # 800170a8 <tickslock>
    int nproc = 0;
    80001ef4:	4c81                	li	s9,0
    80001ef6:	a8a1                	j	80001f4e <scheduler+0xaa>
        p->state = RUNNING;
    80001ef8:	0174ac23          	sw	s7,24(s1)
        c->proc = p;
    80001efc:	009b3c23          	sd	s1,24(s6)
        swtch(&c->context, &p->context);
    80001f00:	06048593          	addi	a1,s1,96
    80001f04:	8562                	mv	a0,s8
    80001f06:	00000097          	auipc	ra,0x0
    80001f0a:	63a080e7          	jalr	1594(ra) # 80002540 <swtch>
        c->proc = 0;
    80001f0e:	000b3c23          	sd	zero,24(s6)
      release(&p->lock);
    80001f12:	8526                	mv	a0,s1
    80001f14:	fffff097          	auipc	ra,0xfffff
    80001f18:	db8080e7          	jalr	-584(ra) # 80000ccc <release>
    for(p = proc; p < &proc[NPROC]; p++) {
    80001f1c:	16848493          	addi	s1,s1,360
    80001f20:	01448d63          	beq	s1,s4,80001f3a <scheduler+0x96>
      acquire(&p->lock);
    80001f24:	8526                	mv	a0,s1
    80001f26:	fffff097          	auipc	ra,0xfffff
    80001f2a:	cf2080e7          	jalr	-782(ra) # 80000c18 <acquire>
      if(p->state != UNUSED) {
    80001f2e:	4c9c                	lw	a5,24(s1)
    80001f30:	d3ed                	beqz	a5,80001f12 <scheduler+0x6e>
        nproc++;
    80001f32:	2985                	addiw	s3,s3,1
      if(p->state == RUNNABLE) {
    80001f34:	fd579fe3          	bne	a5,s5,80001f12 <scheduler+0x6e>
    80001f38:	b7c1                	j	80001ef8 <scheduler+0x54>
    if(nproc <= 2) {   // only init and sh exist
    80001f3a:	013aca63          	blt	s5,s3,80001f4e <scheduler+0xaa>
  asm volatile("csrr %0, sstatus" : "=r" (x) );
    80001f3e:	100027f3          	csrr	a5,sstatus
  w_sstatus(r_sstatus() | SSTATUS_SIE);
    80001f42:	0027e793          	ori	a5,a5,2
  asm volatile("csrw sstatus, %0" : : "r" (x));
    80001f46:	10079073          	csrw	sstatus,a5
      asm volatile("wfi");
    80001f4a:	10500073          	wfi
  asm volatile("csrr %0, sstatus" : "=r" (x) );
    80001f4e:	100027f3          	csrr	a5,sstatus
  w_sstatus(r_sstatus() | SSTATUS_SIE);
    80001f52:	0027e793          	ori	a5,a5,2
  asm volatile("csrw sstatus, %0" : : "r" (x));
    80001f56:	10079073          	csrw	sstatus,a5
    int nproc = 0;
    80001f5a:	89e6                	mv	s3,s9
    for(p = proc; p < &proc[NPROC]; p++) {
    80001f5c:	0000f497          	auipc	s1,0xf
    80001f60:	74c48493          	addi	s1,s1,1868 # 800116a8 <proc>
        p->state = RUNNING;
    80001f64:	4b8d                	li	s7,3
    80001f66:	bf7d                	j	80001f24 <scheduler+0x80>

0000000080001f68 <sched>:
{
    80001f68:	7179                	addi	sp,sp,-48
    80001f6a:	f406                	sd	ra,40(sp)
    80001f6c:	f022                	sd	s0,32(sp)
    80001f6e:	ec26                	sd	s1,24(sp)
    80001f70:	e84a                	sd	s2,16(sp)
    80001f72:	e44e                	sd	s3,8(sp)
    80001f74:	1800                	addi	s0,sp,48
  struct proc *p = myproc();
    80001f76:	00000097          	auipc	ra,0x0
    80001f7a:	9fe080e7          	jalr	-1538(ra) # 80001974 <myproc>
    80001f7e:	84aa                	mv	s1,a0
  if(!holding(&p->lock))
    80001f80:	fffff097          	auipc	ra,0xfffff
    80001f84:	c1e080e7          	jalr	-994(ra) # 80000b9e <holding>
    80001f88:	c93d                	beqz	a0,80001ffe <sched+0x96>
  asm volatile("mv %0, tp" : "=r" (x) );
    80001f8a:	8792                	mv	a5,tp
  if(mycpu()->noff != 1)
    80001f8c:	2781                	sext.w	a5,a5
    80001f8e:	079e                	slli	a5,a5,0x7
    80001f90:	0000f717          	auipc	a4,0xf
    80001f94:	30070713          	addi	a4,a4,768 # 80011290 <pid_lock>
    80001f98:	97ba                	add	a5,a5,a4
    80001f9a:	0907a703          	lw	a4,144(a5)
    80001f9e:	4785                	li	a5,1
    80001fa0:	06f71763          	bne	a4,a5,8000200e <sched+0xa6>
  if(p->state == RUNNING)
    80001fa4:	4c98                	lw	a4,24(s1)
    80001fa6:	478d                	li	a5,3
    80001fa8:	06f70b63          	beq	a4,a5,8000201e <sched+0xb6>
  asm volatile("csrr %0, sstatus" : "=r" (x) );
    80001fac:	100027f3          	csrr	a5,sstatus
  return (x & SSTATUS_SIE) != 0;
    80001fb0:	8b89                	andi	a5,a5,2
  if(intr_get())
    80001fb2:	efb5                	bnez	a5,8000202e <sched+0xc6>
  asm volatile("mv %0, tp" : "=r" (x) );
    80001fb4:	8792                	mv	a5,tp
  intena = mycpu()->intena;
    80001fb6:	0000f917          	auipc	s2,0xf
    80001fba:	2da90913          	addi	s2,s2,730 # 80011290 <pid_lock>
    80001fbe:	2781                	sext.w	a5,a5
    80001fc0:	079e                	slli	a5,a5,0x7
    80001fc2:	97ca                	add	a5,a5,s2
    80001fc4:	0947a983          	lw	s3,148(a5)
    80001fc8:	8792                	mv	a5,tp
  swtch(&p->context, &mycpu()->context);
    80001fca:	2781                	sext.w	a5,a5
    80001fcc:	079e                	slli	a5,a5,0x7
    80001fce:	0000f597          	auipc	a1,0xf
    80001fd2:	2e258593          	addi	a1,a1,738 # 800112b0 <cpus+0x8>
    80001fd6:	95be                	add	a1,a1,a5
    80001fd8:	06048513          	addi	a0,s1,96
    80001fdc:	00000097          	auipc	ra,0x0
    80001fe0:	564080e7          	jalr	1380(ra) # 80002540 <swtch>
    80001fe4:	8792                	mv	a5,tp
  mycpu()->intena = intena;
    80001fe6:	2781                	sext.w	a5,a5
    80001fe8:	079e                	slli	a5,a5,0x7
    80001fea:	97ca                	add	a5,a5,s2
    80001fec:	0937aa23          	sw	s3,148(a5)
}
    80001ff0:	70a2                	ld	ra,40(sp)
    80001ff2:	7402                	ld	s0,32(sp)
    80001ff4:	64e2                	ld	s1,24(sp)
    80001ff6:	6942                	ld	s2,16(sp)
    80001ff8:	69a2                	ld	s3,8(sp)
    80001ffa:	6145                	addi	sp,sp,48
    80001ffc:	8082                	ret
    panic("sched p->lock");
    80001ffe:	00006517          	auipc	a0,0x6
    80002002:	1fa50513          	addi	a0,a0,506 # 800081f8 <digits+0x1b8>
    80002006:	ffffe097          	auipc	ra,0xffffe
    8000200a:	54a080e7          	jalr	1354(ra) # 80000550 <panic>
    panic("sched locks");
    8000200e:	00006517          	auipc	a0,0x6
    80002012:	1fa50513          	addi	a0,a0,506 # 80008208 <digits+0x1c8>
    80002016:	ffffe097          	auipc	ra,0xffffe
    8000201a:	53a080e7          	jalr	1338(ra) # 80000550 <panic>
    panic("sched running");
    8000201e:	00006517          	auipc	a0,0x6
    80002022:	1fa50513          	addi	a0,a0,506 # 80008218 <digits+0x1d8>
    80002026:	ffffe097          	auipc	ra,0xffffe
    8000202a:	52a080e7          	jalr	1322(ra) # 80000550 <panic>
    panic("sched interruptible");
    8000202e:	00006517          	auipc	a0,0x6
    80002032:	1fa50513          	addi	a0,a0,506 # 80008228 <digits+0x1e8>
    80002036:	ffffe097          	auipc	ra,0xffffe
    8000203a:	51a080e7          	jalr	1306(ra) # 80000550 <panic>

000000008000203e <exit>:
{
    8000203e:	7179                	addi	sp,sp,-48
    80002040:	f406                	sd	ra,40(sp)
    80002042:	f022                	sd	s0,32(sp)
    80002044:	ec26                	sd	s1,24(sp)
    80002046:	e84a                	sd	s2,16(sp)
    80002048:	e44e                	sd	s3,8(sp)
    8000204a:	e052                	sd	s4,0(sp)
    8000204c:	1800                	addi	s0,sp,48
    8000204e:	8a2a                	mv	s4,a0
  struct proc *p = myproc();
    80002050:	00000097          	auipc	ra,0x0
    80002054:	924080e7          	jalr	-1756(ra) # 80001974 <myproc>
    80002058:	89aa                	mv	s3,a0
  if(p == initproc)
    8000205a:	00007797          	auipc	a5,0x7
    8000205e:	fbe7b783          	ld	a5,-66(a5) # 80009018 <initproc>
    80002062:	0d050493          	addi	s1,a0,208
    80002066:	15050913          	addi	s2,a0,336
    8000206a:	02a79363          	bne	a5,a0,80002090 <exit+0x52>
    panic("init exiting");
    8000206e:	00006517          	auipc	a0,0x6
    80002072:	1d250513          	addi	a0,a0,466 # 80008240 <digits+0x200>
    80002076:	ffffe097          	auipc	ra,0xffffe
    8000207a:	4da080e7          	jalr	1242(ra) # 80000550 <panic>
      fileclose(f);
    8000207e:	00002097          	auipc	ra,0x2
    80002082:	3ca080e7          	jalr	970(ra) # 80004448 <fileclose>
      p->ofile[fd] = 0;
    80002086:	0004b023          	sd	zero,0(s1)
  for(int fd = 0; fd < NOFILE; fd++){
    8000208a:	04a1                	addi	s1,s1,8
    8000208c:	01248563          	beq	s1,s2,80002096 <exit+0x58>
    if(p->ofile[fd]){
    80002090:	6088                	ld	a0,0(s1)
    80002092:	f575                	bnez	a0,8000207e <exit+0x40>
    80002094:	bfdd                	j	8000208a <exit+0x4c>
  begin_op();
    80002096:	00002097          	auipc	ra,0x2
    8000209a:	ede080e7          	jalr	-290(ra) # 80003f74 <begin_op>
  iput(p->cwd);
    8000209e:	1509b503          	ld	a0,336(s3)
    800020a2:	00001097          	auipc	ra,0x1
    800020a6:	6bc080e7          	jalr	1724(ra) # 8000375e <iput>
  end_op();
    800020aa:	00002097          	auipc	ra,0x2
    800020ae:	f4a080e7          	jalr	-182(ra) # 80003ff4 <end_op>
  p->cwd = 0;
    800020b2:	1409b823          	sd	zero,336(s3)
  acquire(&initproc->lock);
    800020b6:	00007497          	auipc	s1,0x7
    800020ba:	f6248493          	addi	s1,s1,-158 # 80009018 <initproc>
    800020be:	6088                	ld	a0,0(s1)
    800020c0:	fffff097          	auipc	ra,0xfffff
    800020c4:	b58080e7          	jalr	-1192(ra) # 80000c18 <acquire>
  wakeup1(initproc);
    800020c8:	6088                	ld	a0,0(s1)
    800020ca:	fffff097          	auipc	ra,0xfffff
    800020ce:	76a080e7          	jalr	1898(ra) # 80001834 <wakeup1>
  release(&initproc->lock);
    800020d2:	6088                	ld	a0,0(s1)
    800020d4:	fffff097          	auipc	ra,0xfffff
    800020d8:	bf8080e7          	jalr	-1032(ra) # 80000ccc <release>
  acquire(&p->lock);
    800020dc:	854e                	mv	a0,s3
    800020de:	fffff097          	auipc	ra,0xfffff
    800020e2:	b3a080e7          	jalr	-1222(ra) # 80000c18 <acquire>
  struct proc *original_parent = p->parent;
    800020e6:	0209b483          	ld	s1,32(s3)
  release(&p->lock);
    800020ea:	854e                	mv	a0,s3
    800020ec:	fffff097          	auipc	ra,0xfffff
    800020f0:	be0080e7          	jalr	-1056(ra) # 80000ccc <release>
  acquire(&original_parent->lock);
    800020f4:	8526                	mv	a0,s1
    800020f6:	fffff097          	auipc	ra,0xfffff
    800020fa:	b22080e7          	jalr	-1246(ra) # 80000c18 <acquire>
  acquire(&p->lock);
    800020fe:	854e                	mv	a0,s3
    80002100:	fffff097          	auipc	ra,0xfffff
    80002104:	b18080e7          	jalr	-1256(ra) # 80000c18 <acquire>
  reparent(p);
    80002108:	854e                	mv	a0,s3
    8000210a:	00000097          	auipc	ra,0x0
    8000210e:	d34080e7          	jalr	-716(ra) # 80001e3e <reparent>
  wakeup1(original_parent);
    80002112:	8526                	mv	a0,s1
    80002114:	fffff097          	auipc	ra,0xfffff
    80002118:	720080e7          	jalr	1824(ra) # 80001834 <wakeup1>
  p->xstate = status;
    8000211c:	0349aa23          	sw	s4,52(s3)
  p->state = ZOMBIE;
    80002120:	4791                	li	a5,4
    80002122:	00f9ac23          	sw	a5,24(s3)
  release(&original_parent->lock);
    80002126:	8526                	mv	a0,s1
    80002128:	fffff097          	auipc	ra,0xfffff
    8000212c:	ba4080e7          	jalr	-1116(ra) # 80000ccc <release>
  sched();
    80002130:	00000097          	auipc	ra,0x0
    80002134:	e38080e7          	jalr	-456(ra) # 80001f68 <sched>
  panic("zombie exit");
    80002138:	00006517          	auipc	a0,0x6
    8000213c:	11850513          	addi	a0,a0,280 # 80008250 <digits+0x210>
    80002140:	ffffe097          	auipc	ra,0xffffe
    80002144:	410080e7          	jalr	1040(ra) # 80000550 <panic>

0000000080002148 <yield>:
{
    80002148:	1101                	addi	sp,sp,-32
    8000214a:	ec06                	sd	ra,24(sp)
    8000214c:	e822                	sd	s0,16(sp)
    8000214e:	e426                	sd	s1,8(sp)
    80002150:	1000                	addi	s0,sp,32
  struct proc *p = myproc();
    80002152:	00000097          	auipc	ra,0x0
    80002156:	822080e7          	jalr	-2014(ra) # 80001974 <myproc>
    8000215a:	84aa                	mv	s1,a0
  acquire(&p->lock);
    8000215c:	fffff097          	auipc	ra,0xfffff
    80002160:	abc080e7          	jalr	-1348(ra) # 80000c18 <acquire>
  p->state = RUNNABLE;
    80002164:	4789                	li	a5,2
    80002166:	cc9c                	sw	a5,24(s1)
  sched();
    80002168:	00000097          	auipc	ra,0x0
    8000216c:	e00080e7          	jalr	-512(ra) # 80001f68 <sched>
  release(&p->lock);
    80002170:	8526                	mv	a0,s1
    80002172:	fffff097          	auipc	ra,0xfffff
    80002176:	b5a080e7          	jalr	-1190(ra) # 80000ccc <release>
}
    8000217a:	60e2                	ld	ra,24(sp)
    8000217c:	6442                	ld	s0,16(sp)
    8000217e:	64a2                	ld	s1,8(sp)
    80002180:	6105                	addi	sp,sp,32
    80002182:	8082                	ret

0000000080002184 <sleep>:
{
    80002184:	7179                	addi	sp,sp,-48
    80002186:	f406                	sd	ra,40(sp)
    80002188:	f022                	sd	s0,32(sp)
    8000218a:	ec26                	sd	s1,24(sp)
    8000218c:	e84a                	sd	s2,16(sp)
    8000218e:	e44e                	sd	s3,8(sp)
    80002190:	1800                	addi	s0,sp,48
    80002192:	89aa                	mv	s3,a0
    80002194:	892e                	mv	s2,a1
  struct proc *p = myproc();
    80002196:	fffff097          	auipc	ra,0xfffff
    8000219a:	7de080e7          	jalr	2014(ra) # 80001974 <myproc>
    8000219e:	84aa                	mv	s1,a0
  if(lk != &p->lock){  //DOC: sleeplock0
    800021a0:	05250663          	beq	a0,s2,800021ec <sleep+0x68>
    acquire(&p->lock);  //DOC: sleeplock1
    800021a4:	fffff097          	auipc	ra,0xfffff
    800021a8:	a74080e7          	jalr	-1420(ra) # 80000c18 <acquire>
    release(lk);
    800021ac:	854a                	mv	a0,s2
    800021ae:	fffff097          	auipc	ra,0xfffff
    800021b2:	b1e080e7          	jalr	-1250(ra) # 80000ccc <release>
  p->chan = chan;
    800021b6:	0334b423          	sd	s3,40(s1)
  p->state = SLEEPING;
    800021ba:	4785                	li	a5,1
    800021bc:	cc9c                	sw	a5,24(s1)
  sched();
    800021be:	00000097          	auipc	ra,0x0
    800021c2:	daa080e7          	jalr	-598(ra) # 80001f68 <sched>
  p->chan = 0;
    800021c6:	0204b423          	sd	zero,40(s1)
    release(&p->lock);
    800021ca:	8526                	mv	a0,s1
    800021cc:	fffff097          	auipc	ra,0xfffff
    800021d0:	b00080e7          	jalr	-1280(ra) # 80000ccc <release>
    acquire(lk);
    800021d4:	854a                	mv	a0,s2
    800021d6:	fffff097          	auipc	ra,0xfffff
    800021da:	a42080e7          	jalr	-1470(ra) # 80000c18 <acquire>
}
    800021de:	70a2                	ld	ra,40(sp)
    800021e0:	7402                	ld	s0,32(sp)
    800021e2:	64e2                	ld	s1,24(sp)
    800021e4:	6942                	ld	s2,16(sp)
    800021e6:	69a2                	ld	s3,8(sp)
    800021e8:	6145                	addi	sp,sp,48
    800021ea:	8082                	ret
  p->chan = chan;
    800021ec:	03353423          	sd	s3,40(a0)
  p->state = SLEEPING;
    800021f0:	4785                	li	a5,1
    800021f2:	cd1c                	sw	a5,24(a0)
  sched();
    800021f4:	00000097          	auipc	ra,0x0
    800021f8:	d74080e7          	jalr	-652(ra) # 80001f68 <sched>
  p->chan = 0;
    800021fc:	0204b423          	sd	zero,40(s1)
  if(lk != &p->lock){
    80002200:	bff9                	j	800021de <sleep+0x5a>

0000000080002202 <wait>:
{
    80002202:	715d                	addi	sp,sp,-80
    80002204:	e486                	sd	ra,72(sp)
    80002206:	e0a2                	sd	s0,64(sp)
    80002208:	fc26                	sd	s1,56(sp)
    8000220a:	f84a                	sd	s2,48(sp)
    8000220c:	f44e                	sd	s3,40(sp)
    8000220e:	f052                	sd	s4,32(sp)
    80002210:	ec56                	sd	s5,24(sp)
    80002212:	e85a                	sd	s6,16(sp)
    80002214:	e45e                	sd	s7,8(sp)
    80002216:	e062                	sd	s8,0(sp)
    80002218:	0880                	addi	s0,sp,80
    8000221a:	8b2a                	mv	s6,a0
  struct proc *p = myproc();
    8000221c:	fffff097          	auipc	ra,0xfffff
    80002220:	758080e7          	jalr	1880(ra) # 80001974 <myproc>
    80002224:	892a                	mv	s2,a0
  acquire(&p->lock);
    80002226:	8c2a                	mv	s8,a0
    80002228:	fffff097          	auipc	ra,0xfffff
    8000222c:	9f0080e7          	jalr	-1552(ra) # 80000c18 <acquire>
    havekids = 0;
    80002230:	4b81                	li	s7,0
        if(np->state == ZOMBIE){
    80002232:	4a11                	li	s4,4
    for(np = proc; np < &proc[NPROC]; np++){
    80002234:	00015997          	auipc	s3,0x15
    80002238:	e7498993          	addi	s3,s3,-396 # 800170a8 <tickslock>
        havekids = 1;
    8000223c:	4a85                	li	s5,1
    havekids = 0;
    8000223e:	875e                	mv	a4,s7
    for(np = proc; np < &proc[NPROC]; np++){
    80002240:	0000f497          	auipc	s1,0xf
    80002244:	46848493          	addi	s1,s1,1128 # 800116a8 <proc>
    80002248:	a08d                	j	800022aa <wait+0xa8>
          pid = np->pid;
    8000224a:	0384a983          	lw	s3,56(s1)
          if(addr != 0 && copyout(p->pagetable, addr, (char *)&np->xstate,
    8000224e:	000b0e63          	beqz	s6,8000226a <wait+0x68>
    80002252:	4691                	li	a3,4
    80002254:	03448613          	addi	a2,s1,52
    80002258:	85da                	mv	a1,s6
    8000225a:	05093503          	ld	a0,80(s2)
    8000225e:	fffff097          	auipc	ra,0xfffff
    80002262:	40a080e7          	jalr	1034(ra) # 80001668 <copyout>
    80002266:	02054263          	bltz	a0,8000228a <wait+0x88>
          freeproc(np);
    8000226a:	8526                	mv	a0,s1
    8000226c:	00000097          	auipc	ra,0x0
    80002270:	8ba080e7          	jalr	-1862(ra) # 80001b26 <freeproc>
          release(&np->lock);
    80002274:	8526                	mv	a0,s1
    80002276:	fffff097          	auipc	ra,0xfffff
    8000227a:	a56080e7          	jalr	-1450(ra) # 80000ccc <release>
          release(&p->lock);
    8000227e:	854a                	mv	a0,s2
    80002280:	fffff097          	auipc	ra,0xfffff
    80002284:	a4c080e7          	jalr	-1460(ra) # 80000ccc <release>
          return pid;
    80002288:	a8a9                	j	800022e2 <wait+0xe0>
            release(&np->lock);
    8000228a:	8526                	mv	a0,s1
    8000228c:	fffff097          	auipc	ra,0xfffff
    80002290:	a40080e7          	jalr	-1472(ra) # 80000ccc <release>
            release(&p->lock);
    80002294:	854a                	mv	a0,s2
    80002296:	fffff097          	auipc	ra,0xfffff
    8000229a:	a36080e7          	jalr	-1482(ra) # 80000ccc <release>
            return -1;
    8000229e:	59fd                	li	s3,-1
    800022a0:	a089                	j	800022e2 <wait+0xe0>
    for(np = proc; np < &proc[NPROC]; np++){
    800022a2:	16848493          	addi	s1,s1,360
    800022a6:	03348463          	beq	s1,s3,800022ce <wait+0xcc>
      if(np->parent == p){
    800022aa:	709c                	ld	a5,32(s1)
    800022ac:	ff279be3          	bne	a5,s2,800022a2 <wait+0xa0>
        acquire(&np->lock);
    800022b0:	8526                	mv	a0,s1
    800022b2:	fffff097          	auipc	ra,0xfffff
    800022b6:	966080e7          	jalr	-1690(ra) # 80000c18 <acquire>
        if(np->state == ZOMBIE){
    800022ba:	4c9c                	lw	a5,24(s1)
    800022bc:	f94787e3          	beq	a5,s4,8000224a <wait+0x48>
        release(&np->lock);
    800022c0:	8526                	mv	a0,s1
    800022c2:	fffff097          	auipc	ra,0xfffff
    800022c6:	a0a080e7          	jalr	-1526(ra) # 80000ccc <release>
        havekids = 1;
    800022ca:	8756                	mv	a4,s5
    800022cc:	bfd9                	j	800022a2 <wait+0xa0>
    if(!havekids || p->killed){
    800022ce:	c701                	beqz	a4,800022d6 <wait+0xd4>
    800022d0:	03092783          	lw	a5,48(s2)
    800022d4:	c785                	beqz	a5,800022fc <wait+0xfa>
      release(&p->lock);
    800022d6:	854a                	mv	a0,s2
    800022d8:	fffff097          	auipc	ra,0xfffff
    800022dc:	9f4080e7          	jalr	-1548(ra) # 80000ccc <release>
      return -1;
    800022e0:	59fd                	li	s3,-1
}
    800022e2:	854e                	mv	a0,s3
    800022e4:	60a6                	ld	ra,72(sp)
    800022e6:	6406                	ld	s0,64(sp)
    800022e8:	74e2                	ld	s1,56(sp)
    800022ea:	7942                	ld	s2,48(sp)
    800022ec:	79a2                	ld	s3,40(sp)
    800022ee:	7a02                	ld	s4,32(sp)
    800022f0:	6ae2                	ld	s5,24(sp)
    800022f2:	6b42                	ld	s6,16(sp)
    800022f4:	6ba2                	ld	s7,8(sp)
    800022f6:	6c02                	ld	s8,0(sp)
    800022f8:	6161                	addi	sp,sp,80
    800022fa:	8082                	ret
    sleep(p, &p->lock);  //DOC: wait-sleep
    800022fc:	85e2                	mv	a1,s8
    800022fe:	854a                	mv	a0,s2
    80002300:	00000097          	auipc	ra,0x0
    80002304:	e84080e7          	jalr	-380(ra) # 80002184 <sleep>
    havekids = 0;
    80002308:	bf1d                	j	8000223e <wait+0x3c>

000000008000230a <wakeup>:
{
    8000230a:	7139                	addi	sp,sp,-64
    8000230c:	fc06                	sd	ra,56(sp)
    8000230e:	f822                	sd	s0,48(sp)
    80002310:	f426                	sd	s1,40(sp)
    80002312:	f04a                	sd	s2,32(sp)
    80002314:	ec4e                	sd	s3,24(sp)
    80002316:	e852                	sd	s4,16(sp)
    80002318:	e456                	sd	s5,8(sp)
    8000231a:	0080                	addi	s0,sp,64
    8000231c:	8a2a                	mv	s4,a0
  for(p = proc; p < &proc[NPROC]; p++) {
    8000231e:	0000f497          	auipc	s1,0xf
    80002322:	38a48493          	addi	s1,s1,906 # 800116a8 <proc>
    if(p->state == SLEEPING && p->chan == chan) {
    80002326:	4985                	li	s3,1
      p->state = RUNNABLE;
    80002328:	4a89                	li	s5,2
  for(p = proc; p < &proc[NPROC]; p++) {
    8000232a:	00015917          	auipc	s2,0x15
    8000232e:	d7e90913          	addi	s2,s2,-642 # 800170a8 <tickslock>
    80002332:	a821                	j	8000234a <wakeup+0x40>
      p->state = RUNNABLE;
    80002334:	0154ac23          	sw	s5,24(s1)
    release(&p->lock);
    80002338:	8526                	mv	a0,s1
    8000233a:	fffff097          	auipc	ra,0xfffff
    8000233e:	992080e7          	jalr	-1646(ra) # 80000ccc <release>
  for(p = proc; p < &proc[NPROC]; p++) {
    80002342:	16848493          	addi	s1,s1,360
    80002346:	01248e63          	beq	s1,s2,80002362 <wakeup+0x58>
    acquire(&p->lock);
    8000234a:	8526                	mv	a0,s1
    8000234c:	fffff097          	auipc	ra,0xfffff
    80002350:	8cc080e7          	jalr	-1844(ra) # 80000c18 <acquire>
    if(p->state == SLEEPING && p->chan == chan) {
    80002354:	4c9c                	lw	a5,24(s1)
    80002356:	ff3791e3          	bne	a5,s3,80002338 <wakeup+0x2e>
    8000235a:	749c                	ld	a5,40(s1)
    8000235c:	fd479ee3          	bne	a5,s4,80002338 <wakeup+0x2e>
    80002360:	bfd1                	j	80002334 <wakeup+0x2a>
}
    80002362:	70e2                	ld	ra,56(sp)
    80002364:	7442                	ld	s0,48(sp)
    80002366:	74a2                	ld	s1,40(sp)
    80002368:	7902                	ld	s2,32(sp)
    8000236a:	69e2                	ld	s3,24(sp)
    8000236c:	6a42                	ld	s4,16(sp)
    8000236e:	6aa2                	ld	s5,8(sp)
    80002370:	6121                	addi	sp,sp,64
    80002372:	8082                	ret

0000000080002374 <kill>:
// Kill the process with the given pid.
// The victim won't exit until it tries to return
// to user space (see usertrap() in trap.c).
int
kill(int pid)
{
    80002374:	7179                	addi	sp,sp,-48
    80002376:	f406                	sd	ra,40(sp)
    80002378:	f022                	sd	s0,32(sp)
    8000237a:	ec26                	sd	s1,24(sp)
    8000237c:	e84a                	sd	s2,16(sp)
    8000237e:	e44e                	sd	s3,8(sp)
    80002380:	1800                	addi	s0,sp,48
    80002382:	892a                	mv	s2,a0
  struct proc *p;

  for(p = proc; p < &proc[NPROC]; p++){
    80002384:	0000f497          	auipc	s1,0xf
    80002388:	32448493          	addi	s1,s1,804 # 800116a8 <proc>
    8000238c:	00015997          	auipc	s3,0x15
    80002390:	d1c98993          	addi	s3,s3,-740 # 800170a8 <tickslock>
    acquire(&p->lock);
    80002394:	8526                	mv	a0,s1
    80002396:	fffff097          	auipc	ra,0xfffff
    8000239a:	882080e7          	jalr	-1918(ra) # 80000c18 <acquire>
    if(p->pid == pid){
    8000239e:	5c9c                	lw	a5,56(s1)
    800023a0:	01278d63          	beq	a5,s2,800023ba <kill+0x46>
        p->state = RUNNABLE;
      }
      release(&p->lock);
      return 0;
    }
    release(&p->lock);
    800023a4:	8526                	mv	a0,s1
    800023a6:	fffff097          	auipc	ra,0xfffff
    800023aa:	926080e7          	jalr	-1754(ra) # 80000ccc <release>
  for(p = proc; p < &proc[NPROC]; p++){
    800023ae:	16848493          	addi	s1,s1,360
    800023b2:	ff3491e3          	bne	s1,s3,80002394 <kill+0x20>
  }
  return -1;
    800023b6:	557d                	li	a0,-1
    800023b8:	a829                	j	800023d2 <kill+0x5e>
      p->killed = 1;
    800023ba:	4785                	li	a5,1
    800023bc:	d89c                	sw	a5,48(s1)
      if(p->state == SLEEPING){
    800023be:	4c98                	lw	a4,24(s1)
    800023c0:	4785                	li	a5,1
    800023c2:	00f70f63          	beq	a4,a5,800023e0 <kill+0x6c>
      release(&p->lock);
    800023c6:	8526                	mv	a0,s1
    800023c8:	fffff097          	auipc	ra,0xfffff
    800023cc:	904080e7          	jalr	-1788(ra) # 80000ccc <release>
      return 0;
    800023d0:	4501                	li	a0,0
}
    800023d2:	70a2                	ld	ra,40(sp)
    800023d4:	7402                	ld	s0,32(sp)
    800023d6:	64e2                	ld	s1,24(sp)
    800023d8:	6942                	ld	s2,16(sp)
    800023da:	69a2                	ld	s3,8(sp)
    800023dc:	6145                	addi	sp,sp,48
    800023de:	8082                	ret
        p->state = RUNNABLE;
    800023e0:	4789                	li	a5,2
    800023e2:	cc9c                	sw	a5,24(s1)
    800023e4:	b7cd                	j	800023c6 <kill+0x52>

00000000800023e6 <either_copyout>:
// Copy to either a user address, or kernel address,
// depending on usr_dst.
// Returns 0 on success, -1 on error.
int
either_copyout(int user_dst, uint64 dst, void *src, uint64 len)
{
    800023e6:	7179                	addi	sp,sp,-48
    800023e8:	f406                	sd	ra,40(sp)
    800023ea:	f022                	sd	s0,32(sp)
    800023ec:	ec26                	sd	s1,24(sp)
    800023ee:	e84a                	sd	s2,16(sp)
    800023f0:	e44e                	sd	s3,8(sp)
    800023f2:	e052                	sd	s4,0(sp)
    800023f4:	1800                	addi	s0,sp,48
    800023f6:	84aa                	mv	s1,a0
    800023f8:	892e                	mv	s2,a1
    800023fa:	89b2                	mv	s3,a2
    800023fc:	8a36                	mv	s4,a3
  struct proc *p = myproc();
    800023fe:	fffff097          	auipc	ra,0xfffff
    80002402:	576080e7          	jalr	1398(ra) # 80001974 <myproc>
  if(user_dst){
    80002406:	c08d                	beqz	s1,80002428 <either_copyout+0x42>
    return copyout(p->pagetable, dst, src, len);
    80002408:	86d2                	mv	a3,s4
    8000240a:	864e                	mv	a2,s3
    8000240c:	85ca                	mv	a1,s2
    8000240e:	6928                	ld	a0,80(a0)
    80002410:	fffff097          	auipc	ra,0xfffff
    80002414:	258080e7          	jalr	600(ra) # 80001668 <copyout>
  } else {
    memmove((char *)dst, src, len);
    return 0;
  }
}
    80002418:	70a2                	ld	ra,40(sp)
    8000241a:	7402                	ld	s0,32(sp)
    8000241c:	64e2                	ld	s1,24(sp)
    8000241e:	6942                	ld	s2,16(sp)
    80002420:	69a2                	ld	s3,8(sp)
    80002422:	6a02                	ld	s4,0(sp)
    80002424:	6145                	addi	sp,sp,48
    80002426:	8082                	ret
    memmove((char *)dst, src, len);
    80002428:	000a061b          	sext.w	a2,s4
    8000242c:	85ce                	mv	a1,s3
    8000242e:	854a                	mv	a0,s2
    80002430:	fffff097          	auipc	ra,0xfffff
    80002434:	944080e7          	jalr	-1724(ra) # 80000d74 <memmove>
    return 0;
    80002438:	8526                	mv	a0,s1
    8000243a:	bff9                	j	80002418 <either_copyout+0x32>

000000008000243c <either_copyin>:
// Copy from either a user address, or kernel address,
// depending on usr_src.
// Returns 0 on success, -1 on error.
int
either_copyin(void *dst, int user_src, uint64 src, uint64 len)
{
    8000243c:	7179                	addi	sp,sp,-48
    8000243e:	f406                	sd	ra,40(sp)
    80002440:	f022                	sd	s0,32(sp)
    80002442:	ec26                	sd	s1,24(sp)
    80002444:	e84a                	sd	s2,16(sp)
    80002446:	e44e                	sd	s3,8(sp)
    80002448:	e052                	sd	s4,0(sp)
    8000244a:	1800                	addi	s0,sp,48
    8000244c:	892a                	mv	s2,a0
    8000244e:	84ae                	mv	s1,a1
    80002450:	89b2                	mv	s3,a2
    80002452:	8a36                	mv	s4,a3
  struct proc *p = myproc();
    80002454:	fffff097          	auipc	ra,0xfffff
    80002458:	520080e7          	jalr	1312(ra) # 80001974 <myproc>
  if(user_src){
    8000245c:	c08d                	beqz	s1,8000247e <either_copyin+0x42>
    return copyin(p->pagetable, dst, src, len);
    8000245e:	86d2                	mv	a3,s4
    80002460:	864e                	mv	a2,s3
    80002462:	85ca                	mv	a1,s2
    80002464:	6928                	ld	a0,80(a0)
    80002466:	fffff097          	auipc	ra,0xfffff
    8000246a:	28e080e7          	jalr	654(ra) # 800016f4 <copyin>
  } else {
    memmove(dst, (char*)src, len);
    return 0;
  }
}
    8000246e:	70a2                	ld	ra,40(sp)
    80002470:	7402                	ld	s0,32(sp)
    80002472:	64e2                	ld	s1,24(sp)
    80002474:	6942                	ld	s2,16(sp)
    80002476:	69a2                	ld	s3,8(sp)
    80002478:	6a02                	ld	s4,0(sp)
    8000247a:	6145                	addi	sp,sp,48
    8000247c:	8082                	ret
    memmove(dst, (char*)src, len);
    8000247e:	000a061b          	sext.w	a2,s4
    80002482:	85ce                	mv	a1,s3
    80002484:	854a                	mv	a0,s2
    80002486:	fffff097          	auipc	ra,0xfffff
    8000248a:	8ee080e7          	jalr	-1810(ra) # 80000d74 <memmove>
    return 0;
    8000248e:	8526                	mv	a0,s1
    80002490:	bff9                	j	8000246e <either_copyin+0x32>

0000000080002492 <procdump>:
// Print a process listing to console.  For debugging.
// Runs when user types ^P on console.
// No lock to avoid wedging a stuck machine further.
void
procdump(void)
{
    80002492:	715d                	addi	sp,sp,-80
    80002494:	e486                	sd	ra,72(sp)
    80002496:	e0a2                	sd	s0,64(sp)
    80002498:	fc26                	sd	s1,56(sp)
    8000249a:	f84a                	sd	s2,48(sp)
    8000249c:	f44e                	sd	s3,40(sp)
    8000249e:	f052                	sd	s4,32(sp)
    800024a0:	ec56                	sd	s5,24(sp)
    800024a2:	e85a                	sd	s6,16(sp)
    800024a4:	e45e                	sd	s7,8(sp)
    800024a6:	0880                	addi	s0,sp,80
  [ZOMBIE]    "zombie"
  };
  struct proc *p;
  char *state;

  printf("\n");
    800024a8:	00006517          	auipc	a0,0x6
    800024ac:	c2050513          	addi	a0,a0,-992 # 800080c8 <digits+0x88>
    800024b0:	ffffe097          	auipc	ra,0xffffe
    800024b4:	0ea080e7          	jalr	234(ra) # 8000059a <printf>
  for(p = proc; p < &proc[NPROC]; p++){
    800024b8:	0000f497          	auipc	s1,0xf
    800024bc:	34848493          	addi	s1,s1,840 # 80011800 <proc+0x158>
    800024c0:	00015917          	auipc	s2,0x15
    800024c4:	d4090913          	addi	s2,s2,-704 # 80017200 <bcache+0x140>
    if(p->state == UNUSED)
      continue;
    if(p->state >= 0 && p->state < NELEM(states) && states[p->state])
    800024c8:	4b11                	li	s6,4
      state = states[p->state];
    else
      state = "???";
    800024ca:	00006997          	auipc	s3,0x6
    800024ce:	d9698993          	addi	s3,s3,-618 # 80008260 <digits+0x220>
    printf("%d %s %s", p->pid, state, p->name);
    800024d2:	00006a97          	auipc	s5,0x6
    800024d6:	d96a8a93          	addi	s5,s5,-618 # 80008268 <digits+0x228>
    printf("\n");
    800024da:	00006a17          	auipc	s4,0x6
    800024de:	beea0a13          	addi	s4,s4,-1042 # 800080c8 <digits+0x88>
    if(p->state >= 0 && p->state < NELEM(states) && states[p->state])
    800024e2:	00006b97          	auipc	s7,0x6
    800024e6:	dbeb8b93          	addi	s7,s7,-578 # 800082a0 <states.1700>
    800024ea:	a00d                	j	8000250c <procdump+0x7a>
    printf("%d %s %s", p->pid, state, p->name);
    800024ec:	ee06a583          	lw	a1,-288(a3)
    800024f0:	8556                	mv	a0,s5
    800024f2:	ffffe097          	auipc	ra,0xffffe
    800024f6:	0a8080e7          	jalr	168(ra) # 8000059a <printf>
    printf("\n");
    800024fa:	8552                	mv	a0,s4
    800024fc:	ffffe097          	auipc	ra,0xffffe
    80002500:	09e080e7          	jalr	158(ra) # 8000059a <printf>
  for(p = proc; p < &proc[NPROC]; p++){
    80002504:	16848493          	addi	s1,s1,360
    80002508:	03248163          	beq	s1,s2,8000252a <procdump+0x98>
    if(p->state == UNUSED)
    8000250c:	86a6                	mv	a3,s1
    8000250e:	ec04a783          	lw	a5,-320(s1)
    80002512:	dbed                	beqz	a5,80002504 <procdump+0x72>
      state = "???";
    80002514:	864e                	mv	a2,s3
    if(p->state >= 0 && p->state < NELEM(states) && states[p->state])
    80002516:	fcfb6be3          	bltu	s6,a5,800024ec <procdump+0x5a>
    8000251a:	1782                	slli	a5,a5,0x20
    8000251c:	9381                	srli	a5,a5,0x20
    8000251e:	078e                	slli	a5,a5,0x3
    80002520:	97de                	add	a5,a5,s7
    80002522:	6390                	ld	a2,0(a5)
    80002524:	f661                	bnez	a2,800024ec <procdump+0x5a>
      state = "???";
    80002526:	864e                	mv	a2,s3
    80002528:	b7d1                	j	800024ec <procdump+0x5a>
  }
}
    8000252a:	60a6                	ld	ra,72(sp)
    8000252c:	6406                	ld	s0,64(sp)
    8000252e:	74e2                	ld	s1,56(sp)
    80002530:	7942                	ld	s2,48(sp)
    80002532:	79a2                	ld	s3,40(sp)
    80002534:	7a02                	ld	s4,32(sp)
    80002536:	6ae2                	ld	s5,24(sp)
    80002538:	6b42                	ld	s6,16(sp)
    8000253a:	6ba2                	ld	s7,8(sp)
    8000253c:	6161                	addi	sp,sp,80
    8000253e:	8082                	ret

0000000080002540 <swtch>:
    80002540:	00153023          	sd	ra,0(a0)
    80002544:	00253423          	sd	sp,8(a0)
    80002548:	e900                	sd	s0,16(a0)
    8000254a:	ed04                	sd	s1,24(a0)
    8000254c:	03253023          	sd	s2,32(a0)
    80002550:	03353423          	sd	s3,40(a0)
    80002554:	03453823          	sd	s4,48(a0)
    80002558:	03553c23          	sd	s5,56(a0)
    8000255c:	05653023          	sd	s6,64(a0)
    80002560:	05753423          	sd	s7,72(a0)
    80002564:	05853823          	sd	s8,80(a0)
    80002568:	05953c23          	sd	s9,88(a0)
    8000256c:	07a53023          	sd	s10,96(a0)
    80002570:	07b53423          	sd	s11,104(a0)
    80002574:	0005b083          	ld	ra,0(a1)
    80002578:	0085b103          	ld	sp,8(a1)
    8000257c:	6980                	ld	s0,16(a1)
    8000257e:	6d84                	ld	s1,24(a1)
    80002580:	0205b903          	ld	s2,32(a1)
    80002584:	0285b983          	ld	s3,40(a1)
    80002588:	0305ba03          	ld	s4,48(a1)
    8000258c:	0385ba83          	ld	s5,56(a1)
    80002590:	0405bb03          	ld	s6,64(a1)
    80002594:	0485bb83          	ld	s7,72(a1)
    80002598:	0505bc03          	ld	s8,80(a1)
    8000259c:	0585bc83          	ld	s9,88(a1)
    800025a0:	0605bd03          	ld	s10,96(a1)
    800025a4:	0685bd83          	ld	s11,104(a1)
    800025a8:	8082                	ret

00000000800025aa <trapinit>:

extern int devintr();

void
trapinit(void)
{
    800025aa:	1141                	addi	sp,sp,-16
    800025ac:	e406                	sd	ra,8(sp)
    800025ae:	e022                	sd	s0,0(sp)
    800025b0:	0800                	addi	s0,sp,16
  initlock(&tickslock, "time");
    800025b2:	00006597          	auipc	a1,0x6
    800025b6:	d1658593          	addi	a1,a1,-746 # 800082c8 <states.1700+0x28>
    800025ba:	00015517          	auipc	a0,0x15
    800025be:	aee50513          	addi	a0,a0,-1298 # 800170a8 <tickslock>
    800025c2:	ffffe097          	auipc	ra,0xffffe
    800025c6:	5c6080e7          	jalr	1478(ra) # 80000b88 <initlock>
}
    800025ca:	60a2                	ld	ra,8(sp)
    800025cc:	6402                	ld	s0,0(sp)
    800025ce:	0141                	addi	sp,sp,16
    800025d0:	8082                	ret

00000000800025d2 <trapinithart>:

// set up to take exceptions and traps while in the kernel.
void
trapinithart(void)
{
    800025d2:	1141                	addi	sp,sp,-16
    800025d4:	e422                	sd	s0,8(sp)
    800025d6:	0800                	addi	s0,sp,16
  asm volatile("csrw stvec, %0" : : "r" (x));
    800025d8:	00003797          	auipc	a5,0x3
    800025dc:	4d878793          	addi	a5,a5,1240 # 80005ab0 <kernelvec>
    800025e0:	10579073          	csrw	stvec,a5
  w_stvec((uint64)kernelvec);
}
    800025e4:	6422                	ld	s0,8(sp)
    800025e6:	0141                	addi	sp,sp,16
    800025e8:	8082                	ret

00000000800025ea <usertrapret>:
//
// return to user space
//
void
usertrapret(void)
{
    800025ea:	1141                	addi	sp,sp,-16
    800025ec:	e406                	sd	ra,8(sp)
    800025ee:	e022                	sd	s0,0(sp)
    800025f0:	0800                	addi	s0,sp,16
  struct proc *p = myproc();
    800025f2:	fffff097          	auipc	ra,0xfffff
    800025f6:	382080e7          	jalr	898(ra) # 80001974 <myproc>
  asm volatile("csrr %0, sstatus" : "=r" (x) );
    800025fa:	100027f3          	csrr	a5,sstatus
  w_sstatus(r_sstatus() & ~SSTATUS_SIE);
    800025fe:	9bf5                	andi	a5,a5,-3
  asm volatile("csrw sstatus, %0" : : "r" (x));
    80002600:	10079073          	csrw	sstatus,a5
  // kerneltrap() to usertrap(), so turn off interrupts until
  // we're back in user space, where usertrap() is correct.
  intr_off();

  // send syscalls, interrupts, and exceptions to trampoline.S
  w_stvec(TRAMPOLINE + (uservec - trampoline));
    80002604:	00005617          	auipc	a2,0x5
    80002608:	9fc60613          	addi	a2,a2,-1540 # 80007000 <_trampoline>
    8000260c:	00005697          	auipc	a3,0x5
    80002610:	9f468693          	addi	a3,a3,-1548 # 80007000 <_trampoline>
    80002614:	8e91                	sub	a3,a3,a2
    80002616:	040007b7          	lui	a5,0x4000
    8000261a:	17fd                	addi	a5,a5,-1
    8000261c:	07b2                	slli	a5,a5,0xc
    8000261e:	96be                	add	a3,a3,a5
  asm volatile("csrw stvec, %0" : : "r" (x));
    80002620:	10569073          	csrw	stvec,a3

  // set up trapframe values that uservec will need when
  // the process next re-enters the kernel.
  p->trapframe->kernel_satp = r_satp();         // kernel page table
    80002624:	6d38                	ld	a4,88(a0)
  asm volatile("csrr %0, satp" : "=r" (x) );
    80002626:	180026f3          	csrr	a3,satp
    8000262a:	e314                	sd	a3,0(a4)
  p->trapframe->kernel_sp = p->kstack + PGSIZE; // process's kernel stack
    8000262c:	6d38                	ld	a4,88(a0)
    8000262e:	6134                	ld	a3,64(a0)
    80002630:	6585                	lui	a1,0x1
    80002632:	96ae                	add	a3,a3,a1
    80002634:	e714                	sd	a3,8(a4)
  p->trapframe->kernel_trap = (uint64)usertrap;
    80002636:	6d38                	ld	a4,88(a0)
    80002638:	00000697          	auipc	a3,0x0
    8000263c:	13868693          	addi	a3,a3,312 # 80002770 <usertrap>
    80002640:	eb14                	sd	a3,16(a4)
  p->trapframe->kernel_hartid = r_tp();         // hartid for cpuid()
    80002642:	6d38                	ld	a4,88(a0)
  asm volatile("mv %0, tp" : "=r" (x) );
    80002644:	8692                	mv	a3,tp
    80002646:	f314                	sd	a3,32(a4)
  asm volatile("csrr %0, sstatus" : "=r" (x) );
    80002648:	100026f3          	csrr	a3,sstatus
  // set up the registers that trampoline.S's sret will use
  // to get to user space.
  
  // set S Previous Privilege mode to User.
  unsigned long x = r_sstatus();
  x &= ~SSTATUS_SPP; // clear SPP to 0 for user mode
    8000264c:	eff6f693          	andi	a3,a3,-257
  x |= SSTATUS_SPIE; // enable interrupts in user mode
    80002650:	0206e693          	ori	a3,a3,32
  asm volatile("csrw sstatus, %0" : : "r" (x));
    80002654:	10069073          	csrw	sstatus,a3
  w_sstatus(x);

  // set S Exception Program Counter to the saved user pc.
  w_sepc(p->trapframe->epc);
    80002658:	6d38                	ld	a4,88(a0)
  asm volatile("csrw sepc, %0" : : "r" (x));
    8000265a:	6f18                	ld	a4,24(a4)
    8000265c:	14171073          	csrw	sepc,a4

  // tell trampoline.S the user page table to switch to.
  uint64 satp = MAKE_SATP(p->pagetable);
    80002660:	692c                	ld	a1,80(a0)
    80002662:	81b1                	srli	a1,a1,0xc

  // jump to trampoline.S at the top of memory, which 
  // switches to the user page table, restores user registers,
  // and switches to user mode with sret.
  uint64 fn = TRAMPOLINE + (userret - trampoline);
    80002664:	00005717          	auipc	a4,0x5
    80002668:	a2c70713          	addi	a4,a4,-1492 # 80007090 <userret>
    8000266c:	8f11                	sub	a4,a4,a2
    8000266e:	97ba                	add	a5,a5,a4
  ((void (*)(uint64,uint64))fn)(TRAPFRAME, satp);
    80002670:	577d                	li	a4,-1
    80002672:	177e                	slli	a4,a4,0x3f
    80002674:	8dd9                	or	a1,a1,a4
    80002676:	02000537          	lui	a0,0x2000
    8000267a:	157d                	addi	a0,a0,-1
    8000267c:	0536                	slli	a0,a0,0xd
    8000267e:	9782                	jalr	a5
}
    80002680:	60a2                	ld	ra,8(sp)
    80002682:	6402                	ld	s0,0(sp)
    80002684:	0141                	addi	sp,sp,16
    80002686:	8082                	ret

0000000080002688 <clockintr>:
  w_sstatus(sstatus);
}

void
clockintr()
{
    80002688:	1101                	addi	sp,sp,-32
    8000268a:	ec06                	sd	ra,24(sp)
    8000268c:	e822                	sd	s0,16(sp)
    8000268e:	e426                	sd	s1,8(sp)
    80002690:	1000                	addi	s0,sp,32
  acquire(&tickslock);
    80002692:	00015497          	auipc	s1,0x15
    80002696:	a1648493          	addi	s1,s1,-1514 # 800170a8 <tickslock>
    8000269a:	8526                	mv	a0,s1
    8000269c:	ffffe097          	auipc	ra,0xffffe
    800026a0:	57c080e7          	jalr	1404(ra) # 80000c18 <acquire>
  ticks++;
    800026a4:	00007517          	auipc	a0,0x7
    800026a8:	97c50513          	addi	a0,a0,-1668 # 80009020 <ticks>
    800026ac:	411c                	lw	a5,0(a0)
    800026ae:	2785                	addiw	a5,a5,1
    800026b0:	c11c                	sw	a5,0(a0)
  wakeup(&ticks);
    800026b2:	00000097          	auipc	ra,0x0
    800026b6:	c58080e7          	jalr	-936(ra) # 8000230a <wakeup>
  release(&tickslock);
    800026ba:	8526                	mv	a0,s1
    800026bc:	ffffe097          	auipc	ra,0xffffe
    800026c0:	610080e7          	jalr	1552(ra) # 80000ccc <release>
}
    800026c4:	60e2                	ld	ra,24(sp)
    800026c6:	6442                	ld	s0,16(sp)
    800026c8:	64a2                	ld	s1,8(sp)
    800026ca:	6105                	addi	sp,sp,32
    800026cc:	8082                	ret

00000000800026ce <devintr>:
// returns 2 if timer interrupt,
// 1 if other device,
// 0 if not recognized.
int
devintr()
{
    800026ce:	1101                	addi	sp,sp,-32
    800026d0:	ec06                	sd	ra,24(sp)
    800026d2:	e822                	sd	s0,16(sp)
    800026d4:	e426                	sd	s1,8(sp)
    800026d6:	1000                	addi	s0,sp,32
  asm volatile("csrr %0, scause" : "=r" (x) );
    800026d8:	14202773          	csrr	a4,scause
  uint64 scause = r_scause();

  if((scause & 0x8000000000000000L) &&
    800026dc:	00074d63          	bltz	a4,800026f6 <devintr+0x28>
    // now allowed to interrupt again.
    if(irq)
      plic_complete(irq);

    return 1;
  } else if(scause == 0x8000000000000001L){
    800026e0:	57fd                	li	a5,-1
    800026e2:	17fe                	slli	a5,a5,0x3f
    800026e4:	0785                	addi	a5,a5,1
    // the SSIP bit in sip.
    w_sip(r_sip() & ~2);

    return 2;
  } else {
    return 0;
    800026e6:	4501                	li	a0,0
  } else if(scause == 0x8000000000000001L){
    800026e8:	06f70363          	beq	a4,a5,8000274e <devintr+0x80>
  }
}
    800026ec:	60e2                	ld	ra,24(sp)
    800026ee:	6442                	ld	s0,16(sp)
    800026f0:	64a2                	ld	s1,8(sp)
    800026f2:	6105                	addi	sp,sp,32
    800026f4:	8082                	ret
     (scause & 0xff) == 9){
    800026f6:	0ff77793          	andi	a5,a4,255
  if((scause & 0x8000000000000000L) &&
    800026fa:	46a5                	li	a3,9
    800026fc:	fed792e3          	bne	a5,a3,800026e0 <devintr+0x12>
    int irq = plic_claim();
    80002700:	00003097          	auipc	ra,0x3
    80002704:	4b8080e7          	jalr	1208(ra) # 80005bb8 <plic_claim>
    80002708:	84aa                	mv	s1,a0
    if(irq == UART0_IRQ){
    8000270a:	47a9                	li	a5,10
    8000270c:	02f50763          	beq	a0,a5,8000273a <devintr+0x6c>
    } else if(irq == VIRTIO0_IRQ){
    80002710:	4785                	li	a5,1
    80002712:	02f50963          	beq	a0,a5,80002744 <devintr+0x76>
    return 1;
    80002716:	4505                	li	a0,1
    } else if(irq){
    80002718:	d8f1                	beqz	s1,800026ec <devintr+0x1e>
      printf("unexpected interrupt irq=%d\n", irq);
    8000271a:	85a6                	mv	a1,s1
    8000271c:	00006517          	auipc	a0,0x6
    80002720:	bb450513          	addi	a0,a0,-1100 # 800082d0 <states.1700+0x30>
    80002724:	ffffe097          	auipc	ra,0xffffe
    80002728:	e76080e7          	jalr	-394(ra) # 8000059a <printf>
      plic_complete(irq);
    8000272c:	8526                	mv	a0,s1
    8000272e:	00003097          	auipc	ra,0x3
    80002732:	4ae080e7          	jalr	1198(ra) # 80005bdc <plic_complete>
    return 1;
    80002736:	4505                	li	a0,1
    80002738:	bf55                	j	800026ec <devintr+0x1e>
      uartintr();
    8000273a:	ffffe097          	auipc	ra,0xffffe
    8000273e:	2a2080e7          	jalr	674(ra) # 800009dc <uartintr>
    80002742:	b7ed                	j	8000272c <devintr+0x5e>
      virtio_disk_intr();
    80002744:	00004097          	auipc	ra,0x4
    80002748:	978080e7          	jalr	-1672(ra) # 800060bc <virtio_disk_intr>
    8000274c:	b7c5                	j	8000272c <devintr+0x5e>
    if(cpuid() == 0){
    8000274e:	fffff097          	auipc	ra,0xfffff
    80002752:	1fa080e7          	jalr	506(ra) # 80001948 <cpuid>
    80002756:	c901                	beqz	a0,80002766 <devintr+0x98>
  asm volatile("csrr %0, sip" : "=r" (x) );
    80002758:	144027f3          	csrr	a5,sip
    w_sip(r_sip() & ~2);
    8000275c:	9bf5                	andi	a5,a5,-3
  asm volatile("csrw sip, %0" : : "r" (x));
    8000275e:	14479073          	csrw	sip,a5
    return 2;
    80002762:	4509                	li	a0,2
    80002764:	b761                	j	800026ec <devintr+0x1e>
      clockintr();
    80002766:	00000097          	auipc	ra,0x0
    8000276a:	f22080e7          	jalr	-222(ra) # 80002688 <clockintr>
    8000276e:	b7ed                	j	80002758 <devintr+0x8a>

0000000080002770 <usertrap>:
{
    80002770:	1101                	addi	sp,sp,-32
    80002772:	ec06                	sd	ra,24(sp)
    80002774:	e822                	sd	s0,16(sp)
    80002776:	e426                	sd	s1,8(sp)
    80002778:	e04a                	sd	s2,0(sp)
    8000277a:	1000                	addi	s0,sp,32
  asm volatile("csrr %0, sstatus" : "=r" (x) );
    8000277c:	100027f3          	csrr	a5,sstatus
  if((r_sstatus() & SSTATUS_SPP) != 0)
    80002780:	1007f793          	andi	a5,a5,256
    80002784:	e3ad                	bnez	a5,800027e6 <usertrap+0x76>
  asm volatile("csrw stvec, %0" : : "r" (x));
    80002786:	00003797          	auipc	a5,0x3
    8000278a:	32a78793          	addi	a5,a5,810 # 80005ab0 <kernelvec>
    8000278e:	10579073          	csrw	stvec,a5
  struct proc *p = myproc();
    80002792:	fffff097          	auipc	ra,0xfffff
    80002796:	1e2080e7          	jalr	482(ra) # 80001974 <myproc>
    8000279a:	84aa                	mv	s1,a0
  p->trapframe->epc = r_sepc();
    8000279c:	6d3c                	ld	a5,88(a0)
  asm volatile("csrr %0, sepc" : "=r" (x) );
    8000279e:	14102773          	csrr	a4,sepc
    800027a2:	ef98                	sd	a4,24(a5)
  asm volatile("csrr %0, scause" : "=r" (x) );
    800027a4:	14202773          	csrr	a4,scause
  if(r_scause() == 8){
    800027a8:	47a1                	li	a5,8
    800027aa:	04f71c63          	bne	a4,a5,80002802 <usertrap+0x92>
    if(p->killed)
    800027ae:	591c                	lw	a5,48(a0)
    800027b0:	e3b9                	bnez	a5,800027f6 <usertrap+0x86>
    p->trapframe->epc += 4;
    800027b2:	6cb8                	ld	a4,88(s1)
    800027b4:	6f1c                	ld	a5,24(a4)
    800027b6:	0791                	addi	a5,a5,4
    800027b8:	ef1c                	sd	a5,24(a4)
  asm volatile("csrr %0, sstatus" : "=r" (x) );
    800027ba:	100027f3          	csrr	a5,sstatus
  w_sstatus(r_sstatus() | SSTATUS_SIE);
    800027be:	0027e793          	ori	a5,a5,2
  asm volatile("csrw sstatus, %0" : : "r" (x));
    800027c2:	10079073          	csrw	sstatus,a5
    syscall();
    800027c6:	00000097          	auipc	ra,0x0
    800027ca:	2e0080e7          	jalr	736(ra) # 80002aa6 <syscall>
  if(p->killed)
    800027ce:	589c                	lw	a5,48(s1)
    800027d0:	ebc1                	bnez	a5,80002860 <usertrap+0xf0>
  usertrapret();
    800027d2:	00000097          	auipc	ra,0x0
    800027d6:	e18080e7          	jalr	-488(ra) # 800025ea <usertrapret>
}
    800027da:	60e2                	ld	ra,24(sp)
    800027dc:	6442                	ld	s0,16(sp)
    800027de:	64a2                	ld	s1,8(sp)
    800027e0:	6902                	ld	s2,0(sp)
    800027e2:	6105                	addi	sp,sp,32
    800027e4:	8082                	ret
    panic("usertrap: not from user mode");
    800027e6:	00006517          	auipc	a0,0x6
    800027ea:	b0a50513          	addi	a0,a0,-1270 # 800082f0 <states.1700+0x50>
    800027ee:	ffffe097          	auipc	ra,0xffffe
    800027f2:	d62080e7          	jalr	-670(ra) # 80000550 <panic>
      exit(-1);
    800027f6:	557d                	li	a0,-1
    800027f8:	00000097          	auipc	ra,0x0
    800027fc:	846080e7          	jalr	-1978(ra) # 8000203e <exit>
    80002800:	bf4d                	j	800027b2 <usertrap+0x42>
  } else if((which_dev = devintr()) != 0){
    80002802:	00000097          	auipc	ra,0x0
    80002806:	ecc080e7          	jalr	-308(ra) # 800026ce <devintr>
    8000280a:	892a                	mv	s2,a0
    8000280c:	c501                	beqz	a0,80002814 <usertrap+0xa4>
  if(p->killed)
    8000280e:	589c                	lw	a5,48(s1)
    80002810:	c3a1                	beqz	a5,80002850 <usertrap+0xe0>
    80002812:	a815                	j	80002846 <usertrap+0xd6>
  asm volatile("csrr %0, scause" : "=r" (x) );
    80002814:	142025f3          	csrr	a1,scause
    printf("usertrap(): unexpected scause %p pid=%d\n", r_scause(), p->pid);
    80002818:	5c90                	lw	a2,56(s1)
    8000281a:	00006517          	auipc	a0,0x6
    8000281e:	af650513          	addi	a0,a0,-1290 # 80008310 <states.1700+0x70>
    80002822:	ffffe097          	auipc	ra,0xffffe
    80002826:	d78080e7          	jalr	-648(ra) # 8000059a <printf>
  asm volatile("csrr %0, sepc" : "=r" (x) );
    8000282a:	141025f3          	csrr	a1,sepc
  asm volatile("csrr %0, stval" : "=r" (x) );
    8000282e:	14302673          	csrr	a2,stval
    printf("            sepc=%p stval=%p\n", r_sepc(), r_stval());
    80002832:	00006517          	auipc	a0,0x6
    80002836:	b0e50513          	addi	a0,a0,-1266 # 80008340 <states.1700+0xa0>
    8000283a:	ffffe097          	auipc	ra,0xffffe
    8000283e:	d60080e7          	jalr	-672(ra) # 8000059a <printf>
    p->killed = 1;
    80002842:	4785                	li	a5,1
    80002844:	d89c                	sw	a5,48(s1)
    exit(-1);
    80002846:	557d                	li	a0,-1
    80002848:	fffff097          	auipc	ra,0xfffff
    8000284c:	7f6080e7          	jalr	2038(ra) # 8000203e <exit>
  if(which_dev == 2)
    80002850:	4789                	li	a5,2
    80002852:	f8f910e3          	bne	s2,a5,800027d2 <usertrap+0x62>
    yield();
    80002856:	00000097          	auipc	ra,0x0
    8000285a:	8f2080e7          	jalr	-1806(ra) # 80002148 <yield>
    8000285e:	bf95                	j	800027d2 <usertrap+0x62>
  int which_dev = 0;
    80002860:	4901                	li	s2,0
    80002862:	b7d5                	j	80002846 <usertrap+0xd6>

0000000080002864 <kerneltrap>:
{
    80002864:	7179                	addi	sp,sp,-48
    80002866:	f406                	sd	ra,40(sp)
    80002868:	f022                	sd	s0,32(sp)
    8000286a:	ec26                	sd	s1,24(sp)
    8000286c:	e84a                	sd	s2,16(sp)
    8000286e:	e44e                	sd	s3,8(sp)
    80002870:	1800                	addi	s0,sp,48
  asm volatile("csrr %0, sepc" : "=r" (x) );
    80002872:	14102973          	csrr	s2,sepc
  asm volatile("csrr %0, sstatus" : "=r" (x) );
    80002876:	100024f3          	csrr	s1,sstatus
  asm volatile("csrr %0, scause" : "=r" (x) );
    8000287a:	142029f3          	csrr	s3,scause
  if((sstatus & SSTATUS_SPP) == 0)
    8000287e:	1004f793          	andi	a5,s1,256
    80002882:	cb85                	beqz	a5,800028b2 <kerneltrap+0x4e>
  asm volatile("csrr %0, sstatus" : "=r" (x) );
    80002884:	100027f3          	csrr	a5,sstatus
  return (x & SSTATUS_SIE) != 0;
    80002888:	8b89                	andi	a5,a5,2
  if(intr_get() != 0)
    8000288a:	ef85                	bnez	a5,800028c2 <kerneltrap+0x5e>
  if((which_dev = devintr()) == 0){
    8000288c:	00000097          	auipc	ra,0x0
    80002890:	e42080e7          	jalr	-446(ra) # 800026ce <devintr>
    80002894:	cd1d                	beqz	a0,800028d2 <kerneltrap+0x6e>
  if(which_dev == 2 && myproc() != 0 && myproc()->state == RUNNING)
    80002896:	4789                	li	a5,2
    80002898:	06f50a63          	beq	a0,a5,8000290c <kerneltrap+0xa8>
  asm volatile("csrw sepc, %0" : : "r" (x));
    8000289c:	14191073          	csrw	sepc,s2
  asm volatile("csrw sstatus, %0" : : "r" (x));
    800028a0:	10049073          	csrw	sstatus,s1
}
    800028a4:	70a2                	ld	ra,40(sp)
    800028a6:	7402                	ld	s0,32(sp)
    800028a8:	64e2                	ld	s1,24(sp)
    800028aa:	6942                	ld	s2,16(sp)
    800028ac:	69a2                	ld	s3,8(sp)
    800028ae:	6145                	addi	sp,sp,48
    800028b0:	8082                	ret
    panic("kerneltrap: not from supervisor mode");
    800028b2:	00006517          	auipc	a0,0x6
    800028b6:	aae50513          	addi	a0,a0,-1362 # 80008360 <states.1700+0xc0>
    800028ba:	ffffe097          	auipc	ra,0xffffe
    800028be:	c96080e7          	jalr	-874(ra) # 80000550 <panic>
    panic("kerneltrap: interrupts enabled");
    800028c2:	00006517          	auipc	a0,0x6
    800028c6:	ac650513          	addi	a0,a0,-1338 # 80008388 <states.1700+0xe8>
    800028ca:	ffffe097          	auipc	ra,0xffffe
    800028ce:	c86080e7          	jalr	-890(ra) # 80000550 <panic>
    printf("scause %p\n", scause);
    800028d2:	85ce                	mv	a1,s3
    800028d4:	00006517          	auipc	a0,0x6
    800028d8:	ad450513          	addi	a0,a0,-1324 # 800083a8 <states.1700+0x108>
    800028dc:	ffffe097          	auipc	ra,0xffffe
    800028e0:	cbe080e7          	jalr	-834(ra) # 8000059a <printf>
  asm volatile("csrr %0, sepc" : "=r" (x) );
    800028e4:	141025f3          	csrr	a1,sepc
  asm volatile("csrr %0, stval" : "=r" (x) );
    800028e8:	14302673          	csrr	a2,stval
    printf("sepc=%p stval=%p\n", r_sepc(), r_stval());
    800028ec:	00006517          	auipc	a0,0x6
    800028f0:	acc50513          	addi	a0,a0,-1332 # 800083b8 <states.1700+0x118>
    800028f4:	ffffe097          	auipc	ra,0xffffe
    800028f8:	ca6080e7          	jalr	-858(ra) # 8000059a <printf>
    panic("kerneltrap");
    800028fc:	00006517          	auipc	a0,0x6
    80002900:	ad450513          	addi	a0,a0,-1324 # 800083d0 <states.1700+0x130>
    80002904:	ffffe097          	auipc	ra,0xffffe
    80002908:	c4c080e7          	jalr	-948(ra) # 80000550 <panic>
  if(which_dev == 2 && myproc() != 0 && myproc()->state == RUNNING)
    8000290c:	fffff097          	auipc	ra,0xfffff
    80002910:	068080e7          	jalr	104(ra) # 80001974 <myproc>
    80002914:	d541                	beqz	a0,8000289c <kerneltrap+0x38>
    80002916:	fffff097          	auipc	ra,0xfffff
    8000291a:	05e080e7          	jalr	94(ra) # 80001974 <myproc>
    8000291e:	4d18                	lw	a4,24(a0)
    80002920:	478d                	li	a5,3
    80002922:	f6f71de3          	bne	a4,a5,8000289c <kerneltrap+0x38>
    yield();
    80002926:	00000097          	auipc	ra,0x0
    8000292a:	822080e7          	jalr	-2014(ra) # 80002148 <yield>
    8000292e:	b7bd                	j	8000289c <kerneltrap+0x38>

0000000080002930 <argraw>:
  return strlen(buf);
}

static uint64
argraw(int n)
{
    80002930:	1101                	addi	sp,sp,-32
    80002932:	ec06                	sd	ra,24(sp)
    80002934:	e822                	sd	s0,16(sp)
    80002936:	e426                	sd	s1,8(sp)
    80002938:	1000                	addi	s0,sp,32
    8000293a:	84aa                	mv	s1,a0
  struct proc *p = myproc();
    8000293c:	fffff097          	auipc	ra,0xfffff
    80002940:	038080e7          	jalr	56(ra) # 80001974 <myproc>
  switch (n) {
    80002944:	4795                	li	a5,5
    80002946:	0497e163          	bltu	a5,s1,80002988 <argraw+0x58>
    8000294a:	048a                	slli	s1,s1,0x2
    8000294c:	00006717          	auipc	a4,0x6
    80002950:	abc70713          	addi	a4,a4,-1348 # 80008408 <states.1700+0x168>
    80002954:	94ba                	add	s1,s1,a4
    80002956:	409c                	lw	a5,0(s1)
    80002958:	97ba                	add	a5,a5,a4
    8000295a:	8782                	jr	a5
  case 0:
    return p->trapframe->a0;
    8000295c:	6d3c                	ld	a5,88(a0)
    8000295e:	7ba8                	ld	a0,112(a5)
  case 5:
    return p->trapframe->a5;
  }
  panic("argraw");
  return -1;
}
    80002960:	60e2                	ld	ra,24(sp)
    80002962:	6442                	ld	s0,16(sp)
    80002964:	64a2                	ld	s1,8(sp)
    80002966:	6105                	addi	sp,sp,32
    80002968:	8082                	ret
    return p->trapframe->a1;
    8000296a:	6d3c                	ld	a5,88(a0)
    8000296c:	7fa8                	ld	a0,120(a5)
    8000296e:	bfcd                	j	80002960 <argraw+0x30>
    return p->trapframe->a2;
    80002970:	6d3c                	ld	a5,88(a0)
    80002972:	63c8                	ld	a0,128(a5)
    80002974:	b7f5                	j	80002960 <argraw+0x30>
    return p->trapframe->a3;
    80002976:	6d3c                	ld	a5,88(a0)
    80002978:	67c8                	ld	a0,136(a5)
    8000297a:	b7dd                	j	80002960 <argraw+0x30>
    return p->trapframe->a4;
    8000297c:	6d3c                	ld	a5,88(a0)
    8000297e:	6bc8                	ld	a0,144(a5)
    80002980:	b7c5                	j	80002960 <argraw+0x30>
    return p->trapframe->a5;
    80002982:	6d3c                	ld	a5,88(a0)
    80002984:	6fc8                	ld	a0,152(a5)
    80002986:	bfe9                	j	80002960 <argraw+0x30>
  panic("argraw");
    80002988:	00006517          	auipc	a0,0x6
    8000298c:	a5850513          	addi	a0,a0,-1448 # 800083e0 <states.1700+0x140>
    80002990:	ffffe097          	auipc	ra,0xffffe
    80002994:	bc0080e7          	jalr	-1088(ra) # 80000550 <panic>

0000000080002998 <fetchaddr>:
{
    80002998:	1101                	addi	sp,sp,-32
    8000299a:	ec06                	sd	ra,24(sp)
    8000299c:	e822                	sd	s0,16(sp)
    8000299e:	e426                	sd	s1,8(sp)
    800029a0:	e04a                	sd	s2,0(sp)
    800029a2:	1000                	addi	s0,sp,32
    800029a4:	84aa                	mv	s1,a0
    800029a6:	892e                	mv	s2,a1
  struct proc *p = myproc();
    800029a8:	fffff097          	auipc	ra,0xfffff
    800029ac:	fcc080e7          	jalr	-52(ra) # 80001974 <myproc>
  if(addr >= p->sz || addr+sizeof(uint64) > p->sz)
    800029b0:	653c                	ld	a5,72(a0)
    800029b2:	02f4f863          	bgeu	s1,a5,800029e2 <fetchaddr+0x4a>
    800029b6:	00848713          	addi	a4,s1,8
    800029ba:	02e7e663          	bltu	a5,a4,800029e6 <fetchaddr+0x4e>
  if(copyin(p->pagetable, (char *)ip, addr, sizeof(*ip)) != 0)
    800029be:	46a1                	li	a3,8
    800029c0:	8626                	mv	a2,s1
    800029c2:	85ca                	mv	a1,s2
    800029c4:	6928                	ld	a0,80(a0)
    800029c6:	fffff097          	auipc	ra,0xfffff
    800029ca:	d2e080e7          	jalr	-722(ra) # 800016f4 <copyin>
    800029ce:	00a03533          	snez	a0,a0
    800029d2:	40a00533          	neg	a0,a0
}
    800029d6:	60e2                	ld	ra,24(sp)
    800029d8:	6442                	ld	s0,16(sp)
    800029da:	64a2                	ld	s1,8(sp)
    800029dc:	6902                	ld	s2,0(sp)
    800029de:	6105                	addi	sp,sp,32
    800029e0:	8082                	ret
    return -1;
    800029e2:	557d                	li	a0,-1
    800029e4:	bfcd                	j	800029d6 <fetchaddr+0x3e>
    800029e6:	557d                	li	a0,-1
    800029e8:	b7fd                	j	800029d6 <fetchaddr+0x3e>

00000000800029ea <fetchstr>:
{
    800029ea:	7179                	addi	sp,sp,-48
    800029ec:	f406                	sd	ra,40(sp)
    800029ee:	f022                	sd	s0,32(sp)
    800029f0:	ec26                	sd	s1,24(sp)
    800029f2:	e84a                	sd	s2,16(sp)
    800029f4:	e44e                	sd	s3,8(sp)
    800029f6:	1800                	addi	s0,sp,48
    800029f8:	892a                	mv	s2,a0
    800029fa:	84ae                	mv	s1,a1
    800029fc:	89b2                	mv	s3,a2
  struct proc *p = myproc();
    800029fe:	fffff097          	auipc	ra,0xfffff
    80002a02:	f76080e7          	jalr	-138(ra) # 80001974 <myproc>
  int err = copyinstr(p->pagetable, buf, addr, max);
    80002a06:	86ce                	mv	a3,s3
    80002a08:	864a                	mv	a2,s2
    80002a0a:	85a6                	mv	a1,s1
    80002a0c:	6928                	ld	a0,80(a0)
    80002a0e:	fffff097          	auipc	ra,0xfffff
    80002a12:	d72080e7          	jalr	-654(ra) # 80001780 <copyinstr>
  if(err < 0)
    80002a16:	00054763          	bltz	a0,80002a24 <fetchstr+0x3a>
  return strlen(buf);
    80002a1a:	8526                	mv	a0,s1
    80002a1c:	ffffe097          	auipc	ra,0xffffe
    80002a20:	480080e7          	jalr	1152(ra) # 80000e9c <strlen>
}
    80002a24:	70a2                	ld	ra,40(sp)
    80002a26:	7402                	ld	s0,32(sp)
    80002a28:	64e2                	ld	s1,24(sp)
    80002a2a:	6942                	ld	s2,16(sp)
    80002a2c:	69a2                	ld	s3,8(sp)
    80002a2e:	6145                	addi	sp,sp,48
    80002a30:	8082                	ret

0000000080002a32 <argint>:

// Fetch the nth 32-bit system call argument.
int
argint(int n, int *ip)
{
    80002a32:	1101                	addi	sp,sp,-32
    80002a34:	ec06                	sd	ra,24(sp)
    80002a36:	e822                	sd	s0,16(sp)
    80002a38:	e426                	sd	s1,8(sp)
    80002a3a:	1000                	addi	s0,sp,32
    80002a3c:	84ae                	mv	s1,a1
  *ip = argraw(n);
    80002a3e:	00000097          	auipc	ra,0x0
    80002a42:	ef2080e7          	jalr	-270(ra) # 80002930 <argraw>
    80002a46:	c088                	sw	a0,0(s1)
  return 0;
}
    80002a48:	4501                	li	a0,0
    80002a4a:	60e2                	ld	ra,24(sp)
    80002a4c:	6442                	ld	s0,16(sp)
    80002a4e:	64a2                	ld	s1,8(sp)
    80002a50:	6105                	addi	sp,sp,32
    80002a52:	8082                	ret

0000000080002a54 <argaddr>:
// Retrieve an argument as a pointer.
// Doesn't check for legality, since
// copyin/copyout will do that.
int
argaddr(int n, uint64 *ip)
{
    80002a54:	1101                	addi	sp,sp,-32
    80002a56:	ec06                	sd	ra,24(sp)
    80002a58:	e822                	sd	s0,16(sp)
    80002a5a:	e426                	sd	s1,8(sp)
    80002a5c:	1000                	addi	s0,sp,32
    80002a5e:	84ae                	mv	s1,a1
  *ip = argraw(n);
    80002a60:	00000097          	auipc	ra,0x0
    80002a64:	ed0080e7          	jalr	-304(ra) # 80002930 <argraw>
    80002a68:	e088                	sd	a0,0(s1)
  return 0;
}
    80002a6a:	4501                	li	a0,0
    80002a6c:	60e2                	ld	ra,24(sp)
    80002a6e:	6442                	ld	s0,16(sp)
    80002a70:	64a2                	ld	s1,8(sp)
    80002a72:	6105                	addi	sp,sp,32
    80002a74:	8082                	ret

0000000080002a76 <argstr>:
// Fetch the nth word-sized system call argument as a null-terminated string.
// Copies into buf, at most max.
// Returns string length if OK (including nul), -1 if error.
int
argstr(int n, char *buf, int max)
{
    80002a76:	1101                	addi	sp,sp,-32
    80002a78:	ec06                	sd	ra,24(sp)
    80002a7a:	e822                	sd	s0,16(sp)
    80002a7c:	e426                	sd	s1,8(sp)
    80002a7e:	e04a                	sd	s2,0(sp)
    80002a80:	1000                	addi	s0,sp,32
    80002a82:	84ae                	mv	s1,a1
    80002a84:	8932                	mv	s2,a2
  *ip = argraw(n);
    80002a86:	00000097          	auipc	ra,0x0
    80002a8a:	eaa080e7          	jalr	-342(ra) # 80002930 <argraw>
  uint64 addr;
  if(argaddr(n, &addr) < 0)
    return -1;
  return fetchstr(addr, buf, max);
    80002a8e:	864a                	mv	a2,s2
    80002a90:	85a6                	mv	a1,s1
    80002a92:	00000097          	auipc	ra,0x0
    80002a96:	f58080e7          	jalr	-168(ra) # 800029ea <fetchstr>
}
    80002a9a:	60e2                	ld	ra,24(sp)
    80002a9c:	6442                	ld	s0,16(sp)
    80002a9e:	64a2                	ld	s1,8(sp)
    80002aa0:	6902                	ld	s2,0(sp)
    80002aa2:	6105                	addi	sp,sp,32
    80002aa4:	8082                	ret

0000000080002aa6 <syscall>:
[SYS_close]   sys_close,
};

void
syscall(void)
{
    80002aa6:	1101                	addi	sp,sp,-32
    80002aa8:	ec06                	sd	ra,24(sp)
    80002aaa:	e822                	sd	s0,16(sp)
    80002aac:	e426                	sd	s1,8(sp)
    80002aae:	e04a                	sd	s2,0(sp)
    80002ab0:	1000                	addi	s0,sp,32
  int num;
  struct proc *p = myproc();
    80002ab2:	fffff097          	auipc	ra,0xfffff
    80002ab6:	ec2080e7          	jalr	-318(ra) # 80001974 <myproc>
    80002aba:	84aa                	mv	s1,a0

  num = p->trapframe->a7;
    80002abc:	05853903          	ld	s2,88(a0)
    80002ac0:	0a893783          	ld	a5,168(s2)
    80002ac4:	0007869b          	sext.w	a3,a5
  if(num > 0 && num < NELEM(syscalls) && syscalls[num]) {
    80002ac8:	37fd                	addiw	a5,a5,-1
    80002aca:	4751                	li	a4,20
    80002acc:	00f76f63          	bltu	a4,a5,80002aea <syscall+0x44>
    80002ad0:	00369713          	slli	a4,a3,0x3
    80002ad4:	00006797          	auipc	a5,0x6
    80002ad8:	94c78793          	addi	a5,a5,-1716 # 80008420 <syscalls>
    80002adc:	97ba                	add	a5,a5,a4
    80002ade:	639c                	ld	a5,0(a5)
    80002ae0:	c789                	beqz	a5,80002aea <syscall+0x44>
    p->trapframe->a0 = syscalls[num]();
    80002ae2:	9782                	jalr	a5
    80002ae4:	06a93823          	sd	a0,112(s2)
    80002ae8:	a839                	j	80002b06 <syscall+0x60>
  } else {
    printf("%d %s: unknown sys call %d\n",
    80002aea:	15848613          	addi	a2,s1,344
    80002aee:	5c8c                	lw	a1,56(s1)
    80002af0:	00006517          	auipc	a0,0x6
    80002af4:	8f850513          	addi	a0,a0,-1800 # 800083e8 <states.1700+0x148>
    80002af8:	ffffe097          	auipc	ra,0xffffe
    80002afc:	aa2080e7          	jalr	-1374(ra) # 8000059a <printf>
            p->pid, p->name, num);
    p->trapframe->a0 = -1;
    80002b00:	6cbc                	ld	a5,88(s1)
    80002b02:	577d                	li	a4,-1
    80002b04:	fbb8                	sd	a4,112(a5)
  }
}
    80002b06:	60e2                	ld	ra,24(sp)
    80002b08:	6442                	ld	s0,16(sp)
    80002b0a:	64a2                	ld	s1,8(sp)
    80002b0c:	6902                	ld	s2,0(sp)
    80002b0e:	6105                	addi	sp,sp,32
    80002b10:	8082                	ret

0000000080002b12 <sys_exit>:
#include "spinlock.h"
#include "proc.h"

uint64
sys_exit(void)
{
    80002b12:	1101                	addi	sp,sp,-32
    80002b14:	ec06                	sd	ra,24(sp)
    80002b16:	e822                	sd	s0,16(sp)
    80002b18:	1000                	addi	s0,sp,32
  int n;
  if(argint(0, &n) < 0)
    80002b1a:	fec40593          	addi	a1,s0,-20
    80002b1e:	4501                	li	a0,0
    80002b20:	00000097          	auipc	ra,0x0
    80002b24:	f12080e7          	jalr	-238(ra) # 80002a32 <argint>
    return -1;
    80002b28:	57fd                	li	a5,-1
  if(argint(0, &n) < 0)
    80002b2a:	00054963          	bltz	a0,80002b3c <sys_exit+0x2a>
  exit(n);
    80002b2e:	fec42503          	lw	a0,-20(s0)
    80002b32:	fffff097          	auipc	ra,0xfffff
    80002b36:	50c080e7          	jalr	1292(ra) # 8000203e <exit>
  return 0;  // not reached
    80002b3a:	4781                	li	a5,0
}
    80002b3c:	853e                	mv	a0,a5
    80002b3e:	60e2                	ld	ra,24(sp)
    80002b40:	6442                	ld	s0,16(sp)
    80002b42:	6105                	addi	sp,sp,32
    80002b44:	8082                	ret

0000000080002b46 <sys_getpid>:

uint64
sys_getpid(void)
{
    80002b46:	1141                	addi	sp,sp,-16
    80002b48:	e406                	sd	ra,8(sp)
    80002b4a:	e022                	sd	s0,0(sp)
    80002b4c:	0800                	addi	s0,sp,16
  return myproc()->pid;
    80002b4e:	fffff097          	auipc	ra,0xfffff
    80002b52:	e26080e7          	jalr	-474(ra) # 80001974 <myproc>
}
    80002b56:	5d08                	lw	a0,56(a0)
    80002b58:	60a2                	ld	ra,8(sp)
    80002b5a:	6402                	ld	s0,0(sp)
    80002b5c:	0141                	addi	sp,sp,16
    80002b5e:	8082                	ret

0000000080002b60 <sys_fork>:

uint64
sys_fork(void)
{
    80002b60:	1141                	addi	sp,sp,-16
    80002b62:	e406                	sd	ra,8(sp)
    80002b64:	e022                	sd	s0,0(sp)
    80002b66:	0800                	addi	s0,sp,16
  return fork();
    80002b68:	fffff097          	auipc	ra,0xfffff
    80002b6c:	1cc080e7          	jalr	460(ra) # 80001d34 <fork>
}
    80002b70:	60a2                	ld	ra,8(sp)
    80002b72:	6402                	ld	s0,0(sp)
    80002b74:	0141                	addi	sp,sp,16
    80002b76:	8082                	ret

0000000080002b78 <sys_wait>:

uint64
sys_wait(void)
{
    80002b78:	1101                	addi	sp,sp,-32
    80002b7a:	ec06                	sd	ra,24(sp)
    80002b7c:	e822                	sd	s0,16(sp)
    80002b7e:	1000                	addi	s0,sp,32
  uint64 p;
  if(argaddr(0, &p) < 0)
    80002b80:	fe840593          	addi	a1,s0,-24
    80002b84:	4501                	li	a0,0
    80002b86:	00000097          	auipc	ra,0x0
    80002b8a:	ece080e7          	jalr	-306(ra) # 80002a54 <argaddr>
    80002b8e:	87aa                	mv	a5,a0
    return -1;
    80002b90:	557d                	li	a0,-1
  if(argaddr(0, &p) < 0)
    80002b92:	0007c863          	bltz	a5,80002ba2 <sys_wait+0x2a>
  return wait(p);
    80002b96:	fe843503          	ld	a0,-24(s0)
    80002b9a:	fffff097          	auipc	ra,0xfffff
    80002b9e:	668080e7          	jalr	1640(ra) # 80002202 <wait>
}
    80002ba2:	60e2                	ld	ra,24(sp)
    80002ba4:	6442                	ld	s0,16(sp)
    80002ba6:	6105                	addi	sp,sp,32
    80002ba8:	8082                	ret

0000000080002baa <sys_sbrk>:

uint64
sys_sbrk(void)
{
    80002baa:	7179                	addi	sp,sp,-48
    80002bac:	f406                	sd	ra,40(sp)
    80002bae:	f022                	sd	s0,32(sp)
    80002bb0:	ec26                	sd	s1,24(sp)
    80002bb2:	1800                	addi	s0,sp,48
  int addr;
  int n;

  if(argint(0, &n) < 0)
    80002bb4:	fdc40593          	addi	a1,s0,-36
    80002bb8:	4501                	li	a0,0
    80002bba:	00000097          	auipc	ra,0x0
    80002bbe:	e78080e7          	jalr	-392(ra) # 80002a32 <argint>
    80002bc2:	87aa                	mv	a5,a0
    return -1;
    80002bc4:	557d                	li	a0,-1
  if(argint(0, &n) < 0)
    80002bc6:	0207c063          	bltz	a5,80002be6 <sys_sbrk+0x3c>
  addr = myproc()->sz;
    80002bca:	fffff097          	auipc	ra,0xfffff
    80002bce:	daa080e7          	jalr	-598(ra) # 80001974 <myproc>
    80002bd2:	4524                	lw	s1,72(a0)
  if(growproc(n) < 0)
    80002bd4:	fdc42503          	lw	a0,-36(s0)
    80002bd8:	fffff097          	auipc	ra,0xfffff
    80002bdc:	0e8080e7          	jalr	232(ra) # 80001cc0 <growproc>
    80002be0:	00054863          	bltz	a0,80002bf0 <sys_sbrk+0x46>
    return -1;
  return addr;
    80002be4:	8526                	mv	a0,s1
}
    80002be6:	70a2                	ld	ra,40(sp)
    80002be8:	7402                	ld	s0,32(sp)
    80002bea:	64e2                	ld	s1,24(sp)
    80002bec:	6145                	addi	sp,sp,48
    80002bee:	8082                	ret
    return -1;
    80002bf0:	557d                	li	a0,-1
    80002bf2:	bfd5                	j	80002be6 <sys_sbrk+0x3c>

0000000080002bf4 <sys_sleep>:

uint64
sys_sleep(void)
{
